# SymbolsHelper-Confirmed: 6.1.4 amd64
libqwt-qt5.so.6 libqwt-qt5-6 #MINVER#
* Build-Depends-Package: libqwt-qt5-dev
 _Z11qwtTickListRK11QwtScaleDiv@Base 6.1.2
 _Z15qwtBoundingRectRK13QwtSeriesDataI10QwtPoint3DEii@Base 6.1.2
 _Z15qwtBoundingRectRK13QwtSeriesDataI12QwtSetSampleEii@Base 6.1.2
 _Z15qwtBoundingRectRK13QwtSeriesDataI13QwtOHLCSampleEii@Base 6.1.2
 _Z15qwtBoundingRectRK13QwtSeriesDataI13QwtPointPolarEii@Base 6.1.2
 _Z15qwtBoundingRectRK13QwtSeriesDataI17QwtIntervalSampleEii@Base 6.1.2
 _Z15qwtBoundingRectRK13QwtSeriesDataI7QPointFEii@Base 6.1.2
 (optional=templinst|arch=alpha amd64 arm64 armel armhf hppa hurd-i386 i386 kfreebsd-i386 powerpc powerpcspe ppc64 ppc64el s390x sparc64)_Z16qwtBoundingRectTI10QwtPoint3DE6QRectFRK13QwtSeriesDataIT_Eii@Base 6.1.2
 (optional=templinst)_Z16qwtBoundingRectTI12QwtSetSampleE6QRectFRK13QwtSeriesDataIT_Eii@Base 6.1.2
 (optional=templinst)_Z16qwtBoundingRectTI13QwtOHLCSampleE6QRectFRK13QwtSeriesDataIT_Eii@Base 6.1.2
 (optional=templinst|arch=alpha amd64 arm64 armel armhf hppa hurd-i386 i386 kfreebsd-amd64 kfreebsd-i386 mips64el powerpc powerpcspe ppc64 ppc64el s390x sparc64 x32)_Z16qwtBoundingRectTI13QwtPointPolarE6QRectFRK13QwtSeriesDataIT_Eii@Base 6.1.2
 (optional=templinst)_Z16qwtBoundingRectTI17QwtIntervalSampleE6QRectFRK13QwtSeriesDataIT_Eii@Base 6.1.2
 (optional=templinst|arch=!mips !mipsel)_Z16qwtBoundingRectTI7QPointFE6QRectFRK13QwtSeriesDataIT_Eii@Base 6.1.2
 (optional=templinst|arch=!alpha !amd64 !hppa !kfreebsd-amd64 !mips64el !ppc64 !ppc64el !s390x !sparc64 !x32)_Z17qRegisterMetaTypeI10QwtGraphicEiPKcPT_N9QtPrivate21MetaTypeDefinedHelperIS3_Xaasr12QMetaTypeId2IS3_E7DefinedntsrS8_9IsBuiltInEE11DefinedTypeE@Base 6.1.2
 _Z19qwtNormalizeDegreesd@Base 6.1.2
 _Z19qwtNormalizeRadiansd@Base 6.1.2
 _Z9qwtGetMaxPKdi@Base 6.1.2
 _Z9qwtGetMinPKdi@Base 6.1.2
 _ZGVZN9QtPrivate19ValueTypeIsMetaTypeI7QVectorI7QPointFELb1EE17registerConverterEiE1f@Base 6.1.2
 _ZGVZNK18QwtPlainTextEngine11PrivateData10findAscentERK5QFontE5dummy@Base 6.1.2
 _ZGVZNK18QwtPlainTextEngine11PrivateData10findAscentERK5QFontE5white@Base 6.1.2
 _ZN10QByteArrayD1Ev@Base 6.1.2
 _ZN10QByteArrayD2Ev@Base 6.1.2
 _ZN10QwtClipper10clipCircleERK6QRectFRK7QPointFd@Base 6.1.2
 _ZN10QwtClipper11clipPolygonERK5QRectRK8QPolygonb@Base 6.1.2
 _ZN10QwtClipper11clipPolygonERK6QRectFRK8QPolygonb@Base 6.1.2
 _ZN10QwtClipper12clipPolygonFERK6QRectFRK9QPolygonFb@Base 6.1.2
 _ZN10QwtCompass11qt_metacallEN11QMetaObject4CallEiPPv@Base 6.1.2
 _ZN10QwtCompass11qt_metacastEPKc@Base 6.1.2
 _ZN10QwtCompass13keyPressEventEP9QKeyEvent@Base 6.1.2
 _ZN10QwtCompass16staticMetaObjectE@Base 6.1.2
 _ZN10QwtCompass4roseEv@Base 6.1.2
 _ZN10QwtCompass7setRoseEP14QwtCompassRose@Base 6.1.2
 _ZN10QwtCompassC1EP7QWidget@Base 6.1.2
 _ZN10QwtCompassC2EP7QWidget@Base 6.1.2
 _ZN10QwtCompassD0Ev@Base 6.1.2
 _ZN10QwtCompassD1Ev@Base 6.1.2
 _ZN10QwtCompassD2Ev@Base 6.1.2
 _ZN10QwtCounter10btnClickedEv@Base 6.1.2
 _ZN10QwtCounter10setMaximumEd@Base 6.1.2
 _ZN10QwtCounter10setMinimumEd@Base 6.1.2
 _ZN10QwtCounter10showNumberEd@Base 6.1.2
 _ZN10QwtCounter10wheelEventEP11QWheelEvent@Base 6.1.2
 _ZN10QwtCounter11btnReleasedEv@Base 6.1.2
 _ZN10QwtCounter11initCounterEv@Base 6.1.2
 _ZN10QwtCounter11qt_metacallEN11QMetaObject4CallEiPPv@Base 6.1.2
 _ZN10QwtCounter11qt_metacastEPKc@Base 6.1.2
 _ZN10QwtCounter11setIncStepsENS_6ButtonEi@Base 6.1.2
 _ZN10QwtCounter11setReadOnlyEb@Base 6.1.2
 _ZN10QwtCounter11setWrappingEb@Base 6.1.2
 _ZN10QwtCounter11textChangedEv@Base 6.1.2
 _ZN10QwtCounter12valueChangedEd@Base 6.1.2
 _ZN10QwtCounter13keyPressEventEP9QKeyEvent@Base 6.1.2
 _ZN10QwtCounter13setNumButtonsEi@Base 6.1.2
 _ZN10QwtCounter13setSingleStepEd@Base 6.1.2
 _ZN10QwtCounter13updateButtonsEv@Base 6.1.2
 _ZN10QwtCounter14buttonReleasedEd@Base 6.1.2
 _ZN10QwtCounter14incrementValueEi@Base 6.1.2
 _ZN10QwtCounter14setStepButton1Ei@Base 6.1.2
 _ZN10QwtCounter14setStepButton2Ei@Base 6.1.2
 _ZN10QwtCounter14setStepButton3Ei@Base 6.1.2
 _ZN10QwtCounter16staticMetaObjectE@Base 6.1.2
 _ZN10QwtCounter5eventEP6QEvent@Base 6.1.2
 _ZN10QwtCounter8setRangeEdd@Base 6.1.2
 _ZN10QwtCounter8setValidEb@Base 6.1.2
 _ZN10QwtCounter8setValueEd@Base 6.1.2
 _ZN10QwtCounterC1EP7QWidget@Base 6.1.2
 _ZN10QwtCounterC2EP7QWidget@Base 6.1.2
 _ZN10QwtCounterD0Ev@Base 6.1.2
 _ZN10QwtCounterD1Ev@Base 6.1.2
 _ZN10QwtCounterD2Ev@Base 6.1.2
 _ZN10QwtGraphic10drawPixmapERK6QRectFRK7QPixmapS2_@Base 6.1.2
 _ZN10QwtGraphic11setCommandsER7QVectorI17QwtPainterCommandE@Base 6.1.2
 _ZN10QwtGraphic11updateStateERK17QPaintEngineState@Base 6.1.2
 _ZN10QwtGraphic13setRenderHintENS_10RenderHintEb@Base 6.1.2
 _ZN10QwtGraphic14setDefaultSizeERK6QSizeF@Base 6.1.2
 _ZN10QwtGraphic18updateBoundingRectERK6QRectF@Base 6.1.2
 _ZN10QwtGraphic22updateControlPointRectERK6QRectF@Base 6.1.2
 _ZN10QwtGraphic5resetEv@Base 6.1.2
 _ZN10QwtGraphic8drawPathERK12QPainterPath@Base 6.1.2
 _ZN10QwtGraphic9drawImageERK6QRectFRK6QImageS2_6QFlagsIN2Qt19ImageConversionFlagEE@Base 6.1.2
 _ZN10QwtGraphicC1ERKS_@Base 6.1.2
 _ZN10QwtGraphicC1Ev@Base 6.1.2
 _ZN10QwtGraphicC2ERKS_@Base 6.1.2
 _ZN10QwtGraphicC2Ev@Base 6.1.2
 _ZN10QwtGraphicD0Ev@Base 6.1.2
 _ZN10QwtGraphicD1Ev@Base 6.1.2
 _ZN10QwtGraphicD2Ev@Base 6.1.2
 _ZN10QwtGraphicaSERKS_@Base 6.1.2
 _ZN10QwtPainter10drawPixmapEP8QPainterRK6QRectFRK7QPixmap@Base 6.1.2
 _ZN10QwtPainter10drawPointsEP8QPainterPK6QPointi@Base 6.1.2
 _ZN10QwtPainter10drawPointsEP8QPainterPK7QPointFi@Base 6.1.2
 _ZN10QwtPainter10fillPixmapEPK7QWidgetR7QPixmapRK6QPoint@Base 6.1.2
 _ZN10QwtPainter10isAligningEP8QPainter@Base 6.1.2
 _ZN10QwtPainter11drawEllipseEP8QPainterRK6QRectF@Base 6.1.2
 _ZN10QwtPainter11drawPolygonEP8QPainterRK8QPolygon@Base 6.1.2
 _ZN10QwtPainter11drawPolygonEP8QPainterRK9QPolygonF@Base 6.1.2
 _ZN10QwtPainter12backingStoreEP7QWidgetRK5QSize@Base 6.1.2
 _ZN10QwtPainter12drawColorBarEP8QPainterRK11QwtColorMapRK11QwtIntervalRK11QwtScaleMapN2Qt11OrientationERK6QRectF@Base 6.1.2
 _ZN10QwtPainter12drawPolylineEP8QPainterPK6QPointi@Base 6.1.2
 _ZN10QwtPainter12drawPolylineEP8QPainterPK7QPointFi@Base 6.1.2
 _ZN10QwtPainter12drawPolylineEP8QPainterRK8QPolygon@Base 6.1.2
 _ZN10QwtPainter12drawPolylineEP8QPainterRK9QPolygonF@Base 6.1.2
 _ZN10QwtPainter13drawBackgoundEP8QPainterRK6QRectFPK7QWidget@Base 6.1.2
 _ZN10QwtPainter13drawFocusRectEP8QPainterPK7QWidget@Base 6.1.2
 _ZN10QwtPainter13drawFocusRectEP8QPainterPK7QWidgetRK5QRect@Base 6.1.2
 _ZN10QwtPainter14drawRoundFrameEP8QPainterRK6QRectFRK8QPaletteii@Base 6.1.2
 _ZN10QwtPainter16drawRoundedFrameEP8QPainterRK6QRectFddRK8QPaletteii@Base 6.1.2
 _ZN10QwtPainter18drawSimpleRichTextEP8QPainterRK6QRectFiRK13QTextDocument@Base 6.1.2
 _ZN10QwtPainter19d_polylineSplittingE@Base 6.1.2
 _ZN10QwtPainter19d_roundingAlignmentE@Base 6.1.2
 _ZN10QwtPainter19isX11GraphicsSystemEv@Base 6.1.2
 _ZN10QwtPainter20setPolylineSplittingEb@Base 6.1.2
 _ZN10QwtPainter20setRoundingAlignmentEb@Base 6.1.2
 _ZN10QwtPainter7drawPieEP8QPainterRK6QRectFii@Base 6.1.2
 _ZN10QwtPainter8drawLineEP8QPainterRK7QPointFS4_@Base 6.1.2
 _ZN10QwtPainter8drawPathEP8QPainterRK12QPainterPath@Base 6.1.2
 _ZN10QwtPainter8drawRectEP8QPainterRK6QRectF@Base 6.1.2
 _ZN10QwtPainter8drawRectEP8QPainterdddd@Base 6.1.2
 _ZN10QwtPainter8drawTextEP8QPainterRK6QRectFiRK7QString@Base 6.1.2
 _ZN10QwtPainter8drawTextEP8QPainterRK7QPointFRK7QString@Base 6.1.2
 _ZN10QwtPainter8drawTextEP8QPainterddRK7QString@Base 6.1.2
 _ZN10QwtPainter8drawTextEP8QPainterddddiRK7QString@Base 6.1.2
 _ZN10QwtPainter8fillRectEP8QPainterRK6QRectFRK6QBrush@Base 6.1.2
 _ZN10QwtPainter9drawFrameEP8QPainterRK6QRectFRK8QPaletteNS5_9ColorRoleEiii@Base 6.1.2
 _ZN10QwtPainter9drawImageEP8QPainterRK6QRectFRK6QImage@Base 6.1.2
 _ZN10QwtPainter9drawPointEP8QPainterRK6QPoint@Base 6.1.2
 _ZN10QwtPainter9drawPointEP8QPainterRK7QPointF@Base 6.1.2
 (optional=templinst)_ZN11QMetaTypeIdI7QVectorI7QPointFEE14qt_metatype_idEv@Base 6.1.4
 _ZN11QwtColorMapC1ENS_6FormatE@Base 6.1.2
 _ZN11QwtColorMapC2ENS_6FormatE@Base 6.1.2
 _ZN11QwtColorMapD0Ev@Base 6.1.2
 _ZN11QwtColorMapD1Ev@Base 6.1.2
 _ZN11QwtColorMapD2Ev@Base 6.1.2
 _ZN11QwtIntervalaNERKS_@Base 6.1.2
 _ZN11QwtIntervaloRERKS_@Base 6.1.2
 _ZN11QwtIntervaloREd@Base 6.1.2
 _ZN11QwtPlotDict10insertItemEP11QwtPlotItem@Base 6.1.2
 _ZN11QwtPlotDict10removeItemEP11QwtPlotItem@Base 6.1.2
 _ZN11QwtPlotDict11PrivateData8ItemList10removeItemEP11QwtPlotItem@Base 6.1.4
 _ZN11QwtPlotDict11detachItemsEib@Base 6.1.2
 _ZN11QwtPlotDict13setAutoDeleteEb@Base 6.1.2
 _ZN11QwtPlotDictC1Ev@Base 6.1.2
 _ZN11QwtPlotDictC2Ev@Base 6.1.2
 _ZN11QwtPlotDictD0Ev@Base 6.1.2
 _ZN11QwtPlotDictD1Ev@Base 6.1.2
 _ZN11QwtPlotDictD2Ev@Base 6.1.2
 _ZN11QwtPlotGrid10enableXMinEb@Base 6.1.2
 _ZN11QwtPlotGrid10enableYMinEb@Base 6.1.2
 _ZN11QwtPlotGrid11setMajorPenERK4QPen@Base 6.1.2
 _ZN11QwtPlotGrid11setMajorPenERK6QColordN2Qt8PenStyleE@Base 6.1.2
 _ZN11QwtPlotGrid11setMinorPenERK4QPen@Base 6.1.2
 _ZN11QwtPlotGrid11setMinorPenERK6QColordN2Qt8PenStyleE@Base 6.1.2
 _ZN11QwtPlotGrid14updateScaleDivERK11QwtScaleDivS2_@Base 6.1.2
 _ZN11QwtPlotGrid6setPenERK4QPen@Base 6.1.2
 _ZN11QwtPlotGrid6setPenERK6QColordN2Qt8PenStyleE@Base 6.1.2
 _ZN11QwtPlotGrid7enableXEb@Base 6.1.2
 _ZN11QwtPlotGrid7enableYEb@Base 6.1.2
 _ZN11QwtPlotGrid7setXDivERK11QwtScaleDiv@Base 6.1.2
 _ZN11QwtPlotGrid7setYDivERK11QwtScaleDiv@Base 6.1.2
 _ZN11QwtPlotGridC1Ev@Base 6.1.2
 _ZN11QwtPlotGridC2Ev@Base 6.1.2
 _ZN11QwtPlotGridD0Ev@Base 6.1.2
 _ZN11QwtPlotGridD1Ev@Base 6.1.2
 _ZN11QwtPlotGridD2Ev@Base 6.1.2
 _ZN11QwtPlotItem10setVisibleEb@Base 6.1.2
 _ZN11QwtPlotItem11itemChangedEv@Base 6.1.2
 _ZN11QwtPlotItem12updateLegendEPKS_RK5QListI13QwtLegendDataE@Base 6.1.2
 _ZN11QwtPlotItem13legendChangedEv@Base 6.1.2
 _ZN11QwtPlotItem13setRenderHintENS_10RenderHintEb@Base 6.1.2
 _ZN11QwtPlotItem14updateScaleDivERK11QwtScaleDivS2_@Base 6.1.2
 _ZN11QwtPlotItem15setItemInterestENS_12ItemInterestEb@Base 6.1.2
 _ZN11QwtPlotItem16setItemAttributeENS_13ItemAttributeEb@Base 6.1.2
 _ZN11QwtPlotItem17setLegendIconSizeERK5QSize@Base 6.1.2
 _ZN11QwtPlotItem20setRenderThreadCountEj@Base 6.1.2
 _ZN11QwtPlotItem4hideEv@Base 6.1.2
 _ZN11QwtPlotItem4setZEd@Base 6.1.2
 _ZN11QwtPlotItem4showEv@Base 6.1.2
 _ZN11QwtPlotItem6attachEP7QwtPlot@Base 6.1.2
 _ZN11QwtPlotItem6detachEv@Base 6.1.2
 _ZN11QwtPlotItem7setAxesEii@Base 6.1.2
 _ZN11QwtPlotItem8setTitleERK7QString@Base 6.1.2
 _ZN11QwtPlotItem8setTitleERK7QwtText@Base 6.1.2
 _ZN11QwtPlotItem8setXAxisEi@Base 6.1.2
 _ZN11QwtPlotItem8setYAxisEi@Base 6.1.2
 _ZN11QwtPlotItemC1ERK7QwtText@Base 6.1.2
 _ZN11QwtPlotItemC2ERK7QwtText@Base 6.1.2
 _ZN11QwtPlotItemD0Ev@Base 6.1.2
 _ZN11QwtPlotItemD1Ev@Base 6.1.2
 _ZN11QwtPlotItemD2Ev@Base 6.1.2
 _ZN11QwtScaleDiv11setIntervalERK11QwtInterval@Base 6.1.2
 _ZN11QwtScaleDiv11setIntervalEdd@Base 6.1.2
 _ZN11QwtScaleDiv13setLowerBoundEd@Base 6.1.2
 _ZN11QwtScaleDiv13setUpperBoundEd@Base 6.1.2
 _ZN11QwtScaleDiv6invertEv@Base 6.1.2
 _ZN11QwtScaleDiv8setTicksEiRK5QListIdE@Base 6.1.2
 _ZN11QwtScaleDivC1ERK11QwtIntervalP5QListIdE@Base 6.1.2
 _ZN11QwtScaleDivC1Edd@Base 6.1.2
 _ZN11QwtScaleDivC1EddP5QListIdE@Base 6.1.2
 _ZN11QwtScaleDivC1EddRK5QListIdES3_S3_@Base 6.1.2
 _ZN11QwtScaleDivC2ERK11QwtIntervalP5QListIdE@Base 6.1.2
 _ZN11QwtScaleDivC2Edd@Base 6.1.2
 _ZN11QwtScaleDivC2EddP5QListIdE@Base 6.1.2
 _ZN11QwtScaleDivC2EddRK5QListIdES3_S3_@Base 6.1.2
 _ZN11QwtScaleMap12invTransformERKS_S1_RK6QRectF@Base 6.1.2
 _ZN11QwtScaleMap12invTransformERKS_S1_RK7QPointF@Base 6.1.2
 _ZN11QwtScaleMap12updateFactorEv@Base 6.1.2
 _ZN11QwtScaleMap16setPaintIntervalEdd@Base 6.1.2
 _ZN11QwtScaleMap16setScaleIntervalEdd@Base 6.1.2
 _ZN11QwtScaleMap17setTransformationEP12QwtTransform@Base 6.1.2
 _ZN11QwtScaleMap9transformERKS_S1_RK6QRectF@Base 6.1.2
 _ZN11QwtScaleMap9transformERKS_S1_RK7QPointF@Base 6.1.2
 _ZN11QwtScaleMapC1ERKS_@Base 6.1.2
 _ZN11QwtScaleMapC1Ev@Base 6.1.2
 _ZN11QwtScaleMapC2ERKS_@Base 6.1.2
 _ZN11QwtScaleMapC2Ev@Base 6.1.2
 _ZN11QwtScaleMapD1Ev@Base 6.1.2
 _ZN11QwtScaleMapD2Ev@Base 6.1.2
 _ZN11QwtScaleMapaSERKS_@Base 6.1.2
 (optional=templinst)_ZN12QWeakPointerI7QObjectED1Ev@Base 6.1.4
 (optional=templinst)_ZN12QWeakPointerI7QObjectED2Ev@Base 6.1.4
 (optional=templinst)_ZN12QtConcurrent15RunFunctionTaskIvE3runEv@Base 6.1.2
 (optional=templinst)_ZN12QtConcurrent18StoredFunctorCall4IvPFvPK6QImagePS1_RK5QRectiES4_S4_S5_iE10runFunctorEv@Base 6.1.2
 (optional=templinst)_ZN12QtConcurrent18StoredFunctorCall4IvPFvPK6QImagePS1_RK5QRectiES4_S4_S5_iED0Ev@Base 6.1.2
 (optional=templinst)_ZN12QtConcurrent18StoredFunctorCall4IvPFvPK6QImagePS1_RK5QRectiES4_S4_S5_iED1Ev@Base 6.1.2
 (optional=templinst)_ZN12QtConcurrent18StoredFunctorCall4IvPFvPK6QImagePS1_RK5QRectiES4_S4_S5_iED2Ev@Base 6.1.2
 (optional=templinst)_ZN12QtConcurrent18StoredFunctorCall5IvPFvRK11QwtScaleMapS3_14QwtDotsCommandRK6QPointP6QImageES1_S1_S4_S5_S9_E10runFunctorEv@Base 6.1.4
 (optional=templinst)_ZN12QtConcurrent18StoredFunctorCall5IvPFvRK11QwtScaleMapS3_14QwtDotsCommandRK6QPointP6QImageES1_S1_S4_S5_S9_ED0Ev@Base 6.1.4
 (optional=templinst)_ZN12QtConcurrent18StoredFunctorCall5IvPFvRK11QwtScaleMapS3_14QwtDotsCommandRK6QPointP6QImageES1_S1_S4_S5_S9_ED1Ev@Base 6.1.4
 (optional=templinst)_ZN12QtConcurrent18StoredFunctorCall5IvPFvRK11QwtScaleMapS3_14QwtDotsCommandRK6QPointP6QImageES1_S1_S4_S5_S9_ED2Ev@Base 6.1.4
 (optional=templinst)_ZN12QtConcurrent19RunFunctionTaskBaseIvE3runEv@Base 6.1.2
 (optional=templinst)_ZN12QtConcurrent3runIvRK11QwtScaleMapS1_S3_S1_14QwtDotsCommandS4_RK6QPointS5_P6QImageS9_EE7QFutureIT_EPFSB_T0_T2_T4_T6_T8_ERKT1_RKT3_RKT5_RKT7_RKT9_@Base 6.1.4
 (optional=templinst)_ZN12QtConcurrent41VoidStoredConstMemberFunctionPointerCall4Iv18QwtPlotSpectrogramRK11QwtScaleMapS2_S4_S2_RK5QRectS5_P6QImageS9_E10runFunctorEv@Base 6.1.2
 (optional=templinst)_ZN12QtConcurrent41VoidStoredConstMemberFunctionPointerCall4Iv18QwtPlotSpectrogramRK11QwtScaleMapS2_S4_S2_RK5QRectS5_P6QImageS9_ED0Ev@Base 6.1.2
 (optional=templinst)_ZN12QtConcurrent41VoidStoredConstMemberFunctionPointerCall4Iv18QwtPlotSpectrogramRK11QwtScaleMapS2_S4_S2_RK5QRectS5_P6QImageS9_ED1Ev@Base 6.1.2
 (optional=templinst)_ZN12QtConcurrent41VoidStoredConstMemberFunctionPointerCall4Iv18QwtPlotSpectrogramRK11QwtScaleMapS2_S4_S2_RK5QRectS5_P6QImageS9_ED2Ev@Base 6.1.2
 _ZN12QwtLegendMap12removeWidgetEPK7QWidget@Base 6.1.2
 _ZN12QwtLegendMap6insertERK8QVariantRK5QListIP7QWidgetE@Base 6.1.2
 _ZN12QwtLegendMap6removeERK8QVariant@Base 6.1.2
 _ZN12QwtMagnifier10setEnabledEb@Base 6.1.2
 _ZN12QwtMagnifier11eventFilterEP7QObjectP6QEvent@Base 6.1.2
 _ZN12QwtMagnifier11qt_metacallEN11QMetaObject4CallEiPPv@Base 6.1.2
 _ZN12QwtMagnifier11qt_metacastEPKc@Base 6.1.2
 _ZN12QwtMagnifier12parentWidgetEv@Base 6.1.2
 _ZN12QwtMagnifier12setKeyFactorEd@Base 6.1.2
 _ZN12QwtMagnifier12setZoomInKeyEi6QFlagsIN2Qt16KeyboardModifierEE@Base 6.1.2
 _ZN12QwtMagnifier13setZoomOutKeyEi6QFlagsIN2Qt16KeyboardModifierEE@Base 6.1.2
 _ZN12QwtMagnifier14setMouseButtonEN2Qt11MouseButtonE6QFlagsINS0_16KeyboardModifierEE@Base 6.1.2
 _ZN12QwtMagnifier14setMouseFactorEd@Base 6.1.2
 _ZN12QwtMagnifier14setWheelFactorEd@Base 6.1.2
 _ZN12QwtMagnifier16staticMetaObjectE@Base 6.1.2
 _ZN12QwtMagnifier16widgetWheelEventEP11QWheelEvent@Base 6.1.2
 _ZN12QwtMagnifier17setWheelModifiersE6QFlagsIN2Qt16KeyboardModifierEE@Base 6.1.2
 _ZN12QwtMagnifier19widgetKeyPressEventEP9QKeyEvent@Base 6.1.2
 _ZN12QwtMagnifier20widgetMouseMoveEventEP11QMouseEvent@Base 6.1.2
 _ZN12QwtMagnifier21widgetKeyReleaseEventEP9QKeyEvent@Base 6.1.2
 _ZN12QwtMagnifier21widgetMousePressEventEP11QMouseEvent@Base 6.1.2
 _ZN12QwtMagnifier23widgetMouseReleaseEventEP11QMouseEvent@Base 6.1.2
 _ZN12QwtMagnifierC1EP7QWidget@Base 6.1.2
 _ZN12QwtMagnifierC2EP7QWidget@Base 6.1.2
 _ZN12QwtMagnifierD0Ev@Base 6.1.2
 _ZN12QwtMagnifierD1Ev@Base 6.1.2
 _ZN12QwtMagnifierD2Ev@Base 6.1.2
 _ZN12QwtPlotCurve10setSamplesEP13QwtSeriesDataI7QPointFE@Base 6.1.2
 _ZN12QwtPlotCurve10setSamplesEPKdS1_i@Base 6.1.2
 _ZN12QwtPlotCurve10setSamplesERK7QVectorI7QPointFE@Base 6.1.2
 _ZN12QwtPlotCurve10setSamplesERK7QVectorIdES3_@Base 6.1.2
 _ZN12QwtPlotCurve11setBaselineEd@Base 6.1.2
 _ZN12QwtPlotCurve13setRawSamplesEPKdS1_i@Base 6.1.2
 _ZN12QwtPlotCurve14setCurveFitterEP14QwtCurveFitter@Base 6.1.2
 _ZN12QwtPlotCurve17setCurveAttributeENS_14CurveAttributeEb@Base 6.1.2
 _ZN12QwtPlotCurve17setPaintAttributeENS_14PaintAttributeEb@Base 6.1.2
 _ZN12QwtPlotCurve18setLegendAttributeENS_15LegendAttributeEb@Base 6.1.2
 _ZN12QwtPlotCurve4initEv@Base 6.1.2
 _ZN12QwtPlotCurve6setPenERK4QPen@Base 6.1.2
 _ZN12QwtPlotCurve6setPenERK6QColordN2Qt8PenStyleE@Base 6.1.2
 _ZN12QwtPlotCurve8setBrushERK6QBrush@Base 6.1.2
 _ZN12QwtPlotCurve8setStyleENS_10CurveStyleE@Base 6.1.2
 _ZN12QwtPlotCurve9setSymbolEP9QwtSymbol@Base 6.1.2
 _ZN12QwtPlotCurveC1ERK7QString@Base 6.1.2
 _ZN12QwtPlotCurveC1ERK7QwtText@Base 6.1.2
 _ZN12QwtPlotCurveC2ERK7QString@Base 6.1.2
 _ZN12QwtPlotCurveC2ERK7QwtText@Base 6.1.2
 _ZN12QwtPlotCurveD0Ev@Base 6.1.2
 _ZN12QwtPlotCurveD1Ev@Base 6.1.2
 _ZN12QwtPlotCurveD2Ev@Base 6.1.2
 _ZN12QwtScaleDraw12setAlignmentENS_9AlignmentE@Base 6.1.2
 _ZN12QwtScaleDraw16setLabelRotationEd@Base 6.1.2
 _ZN12QwtScaleDraw17setLabelAlignmentE6QFlagsIN2Qt13AlignmentFlagEE@Base 6.1.2
 _ZN12QwtScaleDraw4moveERK7QPointF@Base 6.1.2
 _ZN12QwtScaleDraw9setLengthEd@Base 6.1.2
 _ZN12QwtScaleDraw9updateMapEv@Base 6.1.2
 _ZN12QwtScaleDrawC1Ev@Base 6.1.2
 _ZN12QwtScaleDrawC2Ev@Base 6.1.2
 _ZN12QwtScaleDrawD0Ev@Base 6.1.2
 _ZN12QwtScaleDrawD1Ev@Base 6.1.2
 _ZN12QwtScaleDrawD2Ev@Base 6.1.2
 _ZN12QwtTextLabel10paintEventEP11QPaintEvent@Base 6.1.2
 _ZN12QwtTextLabel11qt_metacallEN11QMetaObject4CallEiPPv@Base 6.1.2
 _ZN12QwtTextLabel11qt_metacastEPKc@Base 6.1.2
 _ZN12QwtTextLabel12drawContentsEP8QPainter@Base 6.1.2
 _ZN12QwtTextLabel12setPlainTextERK7QString@Base 6.1.2
 _ZN12QwtTextLabel16staticMetaObjectE@Base 6.1.2
 _ZN12QwtTextLabel4initEv@Base 6.1.2
 _ZN12QwtTextLabel5clearEv@Base 6.1.2
 _ZN12QwtTextLabel7setTextERK7QStringN7QwtText10TextFormatE@Base 6.1.2
 _ZN12QwtTextLabel7setTextERK7QwtText@Base 6.1.2
 _ZN12QwtTextLabel8drawTextEP8QPainterRK6QRectF@Base 6.1.2
 _ZN12QwtTextLabel9setIndentEi@Base 6.1.2
 _ZN12QwtTextLabel9setMarginEi@Base 6.1.2
 _ZN12QwtTextLabelC1EP7QWidget@Base 6.1.2
 _ZN12QwtTextLabelC1ERK7QwtTextP7QWidget@Base 6.1.2
 _ZN12QwtTextLabelC2EP7QWidget@Base 6.1.2
 _ZN12QwtTextLabelC2ERK7QwtTextP7QWidget@Base 6.1.2
 _ZN12QwtTextLabelD0Ev@Base 6.1.2
 _ZN12QwtTextLabelD1Ev@Base 6.1.2
 _ZN12QwtTextLabelD2Ev@Base 6.1.2
 _ZN12QwtTransformC1Ev@Base 6.1.2
 _ZN12QwtTransformC2Ev@Base 6.1.2
 _ZN12QwtTransformD0Ev@Base 6.1.2
 _ZN12QwtTransformD1Ev@Base 6.1.2
 _ZN12QwtTransformD2Ev@Base 6.1.2
 _ZN13QwtDialNeedle10setPaletteERK8QPalette@Base 6.1.2
 _ZN13QwtDialNeedleC1Ev@Base 6.1.2
 _ZN13QwtDialNeedleC2Ev@Base 6.1.2
 _ZN13QwtDialNeedleD0Ev@Base 6.1.2
 _ZN13QwtDialNeedleD1Ev@Base 6.1.2
 _ZN13QwtDialNeedleD2Ev@Base 6.1.2
 _ZN13QwtLegendData8setValueEiRK8QVariant@Base 6.1.2
 _ZN13QwtLegendData9setValuesERK4QMapIi8QVariantE@Base 6.1.2
 _ZN13QwtLegendDataC1Ev@Base 6.1.2
 _ZN13QwtLegendDataC2Ev@Base 6.1.2
 _ZN13QwtLegendDataD1Ev@Base 6.1.2
 _ZN13QwtLegendDataD2Ev@Base 6.1.2
 _ZN13QwtPlotCanvas10drawBorderEP8QPainter@Base 6.1.2
 _ZN13QwtPlotCanvas10drawCanvasEP8QPainterb@Base 6.1.2
 _ZN13QwtPlotCanvas10paintEventEP11QPaintEvent@Base 6.1.2
 _ZN13QwtPlotCanvas11qt_metacallEN11QMetaObject4CallEiPPv@Base 6.1.2
 _ZN13QwtPlotCanvas11qt_metacastEPKc@Base 6.1.2
 _ZN13QwtPlotCanvas11resizeEventEP12QResizeEvent@Base 6.1.2
 _ZN13QwtPlotCanvas15setBorderRadiusEd@Base 6.1.2
 _ZN13QwtPlotCanvas16staticMetaObjectE@Base 6.1.2
 _ZN13QwtPlotCanvas17setFocusIndicatorENS_14FocusIndicatorE@Base 6.1.2
 _ZN13QwtPlotCanvas17setPaintAttributeENS_14PaintAttributeEb@Base 6.1.2
 _ZN13QwtPlotCanvas18drawFocusIndicatorEP8QPainter@Base 6.1.2
 _ZN13QwtPlotCanvas20updateStyleSheetInfoEv@Base 6.1.2
 _ZN13QwtPlotCanvas22invalidateBackingStoreEv@Base 6.1.2
 _ZN13QwtPlotCanvas4plotEv@Base 6.1.2
 _ZN13QwtPlotCanvas5eventEP6QEvent@Base 6.1.2
 _ZN13QwtPlotCanvas6replotEv@Base 6.1.2
 _ZN13QwtPlotCanvasC1EP7QwtPlot@Base 6.1.2
 _ZN13QwtPlotCanvasC2EP7QwtPlot@Base 6.1.2
 _ZN13QwtPlotCanvasD0Ev@Base 6.1.2
 _ZN13QwtPlotCanvasD1Ev@Base 6.1.2
 _ZN13QwtPlotCanvasD2Ev@Base 6.1.2
 _ZN13QwtPlotLayout10LayoutData4initEPK7QwtPlotRK6QRectF@Base 6.1.2
 _ZN13QwtPlotLayout10invalidateEv@Base 6.1.2
 _ZN13QwtPlotLayout10setSpacingEi@Base 6.1.2
 _ZN13QwtPlotLayout12setScaleRectEiRK6QRectF@Base 6.1.2
 _ZN13QwtPlotLayout12setTitleRectERK6QRectF@Base 6.1.2
 _ZN13QwtPlotLayout13setCanvasRectERK6QRectF@Base 6.1.2
 _ZN13QwtPlotLayout13setFooterRectERK6QRectF@Base 6.1.2
 _ZN13QwtPlotLayout13setLegendRectERK6QRectF@Base 6.1.2
 _ZN13QwtPlotLayout14setLegendRatioEd@Base 6.1.2
 _ZN13QwtPlotLayout15setCanvasMarginEii@Base 6.1.2
 _ZN13QwtPlotLayout17setLegendPositionEN7QwtPlot14LegendPositionE@Base 6.1.2
 _ZN13QwtPlotLayout17setLegendPositionEN7QwtPlot14LegendPositionEd@Base 6.1.2
 _ZN13QwtPlotLayout21setAlignCanvasToScaleEib@Base 6.1.2
 _ZN13QwtPlotLayout22setAlignCanvasToScalesEb@Base 6.1.2
 _ZN13QwtPlotLayout8activateEPK7QwtPlotRK6QRectF6QFlagsINS_6OptionEE@Base 6.1.2
 _ZN13QwtPlotLayoutC1Ev@Base 6.1.2
 _ZN13QwtPlotLayoutC2Ev@Base 6.1.2
 _ZN13QwtPlotLayoutD0Ev@Base 6.1.2
 _ZN13QwtPlotLayoutD1Ev@Base 6.1.2
 _ZN13QwtPlotLayoutD2Ev@Base 6.1.2
 _ZN13QwtPlotMarker10setLinePenERK4QPen@Base 6.1.2
 _ZN13QwtPlotMarker10setLinePenERK6QColordN2Qt8PenStyleE@Base 6.1.2
 _ZN13QwtPlotMarker10setSpacingEi@Base 6.1.2
 _ZN13QwtPlotMarker12setLineStyleENS_9LineStyleE@Base 6.1.2
 _ZN13QwtPlotMarker17setLabelAlignmentE6QFlagsIN2Qt13AlignmentFlagEE@Base 6.1.2
 _ZN13QwtPlotMarker19setLabelOrientationEN2Qt11OrientationE@Base 6.1.2
 _ZN13QwtPlotMarker8setLabelERK7QwtText@Base 6.1.2
 _ZN13QwtPlotMarker8setValueERK7QPointF@Base 6.1.2
 _ZN13QwtPlotMarker8setValueEdd@Base 6.1.2
 _ZN13QwtPlotMarker9setSymbolEPK9QwtSymbol@Base 6.1.2
 _ZN13QwtPlotMarker9setXValueEd@Base 6.1.2
 _ZN13QwtPlotMarker9setYValueEd@Base 6.1.2
 _ZN13QwtPlotMarkerC1ERK7QString@Base 6.1.2
 _ZN13QwtPlotMarkerC1ERK7QwtText@Base 6.1.2
 _ZN13QwtPlotMarkerC2ERK7QString@Base 6.1.2
 _ZN13QwtPlotMarkerC2ERK7QwtText@Base 6.1.2
 _ZN13QwtPlotMarkerD0Ev@Base 6.1.2
 _ZN13QwtPlotMarkerD1Ev@Base 6.1.2
 _ZN13QwtPlotMarkerD2Ev@Base 6.1.2
 _ZN13QwtPlotPanner10moveCanvasEii@Base 6.1.2
 _ZN13QwtPlotPanner11qt_metacallEN11QMetaObject4CallEiPPv@Base 6.1.2
 _ZN13QwtPlotPanner11qt_metacastEPKc@Base 6.1.2
 _ZN13QwtPlotPanner14setAxisEnabledEib@Base 6.1.2
 _ZN13QwtPlotPanner16staticMetaObjectE@Base 6.1.2
 _ZN13QwtPlotPanner4plotEv@Base 6.1.2
 _ZN13QwtPlotPanner6canvasEv@Base 6.1.2
 _ZN13QwtPlotPannerC1EP7QWidget@Base 6.1.2
 _ZN13QwtPlotPannerC2EP7QWidget@Base 6.1.2
 _ZN13QwtPlotPannerD0Ev@Base 6.1.2
 _ZN13QwtPlotPannerD1Ev@Base 6.1.2
 _ZN13QwtPlotPannerD2Ev@Base 6.1.2
 _ZN13QwtPlotPicker11qt_metacallEN11QMetaObject4CallEiPPv@Base 6.1.2
 _ZN13QwtPlotPicker11qt_metacastEPKc@Base 6.1.2
 _ZN13QwtPlotPicker16staticMetaObjectE@Base 6.1.2
 _ZN13QwtPlotPicker3endEb@Base 6.1.2
 _ZN13QwtPlotPicker4moveERK6QPoint@Base 6.1.2
 _ZN13QwtPlotPicker4plotEv@Base 6.1.2
 _ZN13QwtPlotPicker5movedERK7QPointF@Base 6.1.2
 _ZN13QwtPlotPicker6appendERK6QPoint@Base 6.1.2
 _ZN13QwtPlotPicker6canvasEv@Base 6.1.2
 _ZN13QwtPlotPicker7setAxisEii@Base 6.1.2
 _ZN13QwtPlotPicker8appendedERK7QPointF@Base 6.1.2
 _ZN13QwtPlotPicker8selectedERK6QRectF@Base 6.1.2
 _ZN13QwtPlotPicker8selectedERK7QPointF@Base 6.1.2
 _ZN13QwtPlotPicker8selectedERK7QVectorI7QPointFE@Base 6.1.2
 _ZN13QwtPlotPickerC1EP7QWidget@Base 6.1.2
 _ZN13QwtPlotPickerC1EiiN9QwtPicker10RubberBandENS0_11DisplayModeEP7QWidget@Base 6.1.2
 _ZN13QwtPlotPickerC1EiiP7QWidget@Base 6.1.2
 _ZN13QwtPlotPickerC2EP7QWidget@Base 6.1.2
 _ZN13QwtPlotPickerC2EiiN9QwtPicker10RubberBandENS0_11DisplayModeEP7QWidget@Base 6.1.2
 _ZN13QwtPlotPickerC2EiiP7QWidget@Base 6.1.2
 _ZN13QwtPlotPickerD0Ev@Base 6.1.2
 _ZN13QwtPlotPickerD1Ev@Base 6.1.2
 _ZN13QwtPlotPickerD2Ev@Base 6.1.2
 _ZN13QwtPlotZoomer11qt_metacallEN11QMetaObject4CallEiPPv@Base 6.1.2
 _ZN13QwtPlotZoomer11qt_metacastEPKc@Base 6.1.2
 _ZN13QwtPlotZoomer11setZoomBaseERK6QRectF@Base 6.1.2
 _ZN13QwtPlotZoomer11setZoomBaseEb@Base 6.1.2
 _ZN13QwtPlotZoomer12setZoomStackERK6QStackI6QRectFEi@Base 6.1.2
 _ZN13QwtPlotZoomer16setMaxStackDepthEi@Base 6.1.2
 _ZN13QwtPlotZoomer16staticMetaObjectE@Base 6.1.2
 _ZN13QwtPlotZoomer19widgetKeyPressEventEP9QKeyEvent@Base 6.1.2
 _ZN13QwtPlotZoomer23widgetMouseReleaseEventEP11QMouseEvent@Base 6.1.2
 _ZN13QwtPlotZoomer3endEb@Base 6.1.2
 _ZN13QwtPlotZoomer4initEb@Base 6.1.2
 _ZN13QwtPlotZoomer4zoomERK6QRectF@Base 6.1.2
 _ZN13QwtPlotZoomer4zoomEi@Base 6.1.2
 _ZN13QwtPlotZoomer5beginEv@Base 6.1.2
 _ZN13QwtPlotZoomer6moveByEdd@Base 6.1.2
 _ZN13QwtPlotZoomer6moveToERK7QPointF@Base 6.1.2
 _ZN13QwtPlotZoomer6zoomedERK6QRectF@Base 6.1.2
 _ZN13QwtPlotZoomer7rescaleEv@Base 6.1.2
 _ZN13QwtPlotZoomer7setAxisEii@Base 6.1.2
 _ZN13QwtPlotZoomerC1EP7QWidgetb@Base 6.1.2
 _ZN13QwtPlotZoomerC1EiiP7QWidgetb@Base 6.1.2
 _ZN13QwtPlotZoomerC2EP7QWidgetb@Base 6.1.2
 _ZN13QwtPlotZoomerC2EiiP7QWidgetb@Base 6.1.2
 _ZN13QwtPlotZoomerD0Ev@Base 6.1.2
 _ZN13QwtPlotZoomerD1Ev@Base 6.1.2
 _ZN13QwtPlotZoomerD2Ev@Base 6.1.2
 _ZN13QwtPointPolar8setPointERK7QPointF@Base 6.1.2
 _ZN13QwtPointPolarC1ERK7QPointF@Base 6.1.2
 _ZN13QwtPointPolarC2ERK7QPointF@Base 6.1.2
 _ZN13QwtRasterData10initRasterERK6QRectFRK5QSize@Base 6.1.2
 _ZN13QwtRasterData11setIntervalEN2Qt4AxisERK11QwtInterval@Base 6.1.2
 _ZN13QwtRasterData13discardRasterEv@Base 6.1.2
 _ZN13QwtRasterDataC1Ev@Base 6.1.2
 _ZN13QwtRasterDataC2Ev@Base 6.1.2
 _ZN13QwtRasterDataD0Ev@Base 6.1.2
 _ZN13QwtRasterDataD1Ev@Base 6.1.2
 _ZN13QwtRasterDataD2Ev@Base 6.1.2
 (optional=templinst)_ZN13QwtSeriesDataI10QwtPoint3DE17setRectOfInterestERK6QRectF@Base 6.1.2
 (optional=templinst)_ZN13QwtSeriesDataI12QwtSetSampleE17setRectOfInterestERK6QRectF@Base 6.1.2
 (optional=templinst)_ZN13QwtSeriesDataI13QwtOHLCSampleE17setRectOfInterestERK6QRectF@Base 6.1.2
 (optional=templinst)_ZN13QwtSeriesDataI17QwtIntervalSampleE17setRectOfInterestERK6QRectF@Base 6.1.2
 (optional=templinst)_ZN13QwtSeriesDataI7QPointFE17setRectOfInterestERK6QRectF@Base 6.1.2
 _ZN13QwtTextEngineC1Ev@Base 6.1.2
 _ZN13QwtTextEngineC2Ev@Base 6.1.2
 _ZN13QwtTextEngineD0Ev@Base 6.1.2
 _ZN13QwtTextEngineD1Ev@Base 6.1.2
 _ZN13QwtTextEngineD2Ev@Base 6.1.2
 _ZN14QwtAnalogClock11qt_metacallEN11QMetaObject4CallEiPPv@Base 6.1.2
 _ZN14QwtAnalogClock11qt_metacastEPKc@Base 6.1.2
 _ZN14QwtAnalogClock14setCurrentTimeEv@Base 6.1.2
 _ZN14QwtAnalogClock16staticMetaObjectE@Base 6.1.2
 _ZN14QwtAnalogClock4handENS_4HandE@Base 6.1.2
 _ZN14QwtAnalogClock7setHandENS_4HandEP13QwtDialNeedle@Base 6.1.2
 _ZN14QwtAnalogClock7setTimeERK5QTime@Base 6.1.2
 _ZN14QwtAnalogClock9setNeedleEP13QwtDialNeedle@Base 6.1.2
 _ZN14QwtAnalogClockC1EP7QWidget@Base 6.1.2
 _ZN14QwtAnalogClockC2EP7QWidget@Base 6.1.2
 _ZN14QwtAnalogClockD0Ev@Base 6.1.2
 _ZN14QwtAnalogClockD1Ev@Base 6.1.2
 _ZN14QwtAnalogClockD2Ev@Base 6.1.2
 _ZN14QwtArrowButton10paintEventEP11QPaintEvent@Base 6.1.2
 _ZN14QwtArrowButton13keyPressEventEP9QKeyEvent@Base 6.1.2
 _ZN14QwtArrowButton15drawButtonLabelEP8QPainter@Base 6.1.2
 _ZN14QwtArrowButtonC1EiN2Qt9ArrowTypeEP7QWidget@Base 6.1.2
 _ZN14QwtArrowButtonC2EiN2Qt9ArrowTypeEP7QWidget@Base 6.1.2
 _ZN14QwtArrowButtonD0Ev@Base 6.1.2
 _ZN14QwtArrowButtonD1Ev@Base 6.1.2
 _ZN14QwtArrowButtonD2Ev@Base 6.1.2
 _ZN14QwtCompassRose10setPaletteERK8QPalette@Base 6.1.2
 _ZN14QwtCurveFitterC1Ev@Base 6.1.2
 _ZN14QwtCurveFitterC2Ev@Base 6.1.2
 _ZN14QwtCurveFitterD0Ev@Base 6.1.2
 _ZN14QwtCurveFitterD1Ev@Base 6.1.2
 _ZN14QwtCurveFitterD2Ev@Base 6.1.2
 _ZN14QwtLegendLabel10paintEventEP11QPaintEvent@Base 6.1.2
 _ZN14QwtLegendLabel10setCheckedEb@Base 6.1.2
 _ZN14QwtLegendLabel10setSpacingEi@Base 6.1.2
 _ZN14QwtLegendLabel11qt_metacallEN11QMetaObject4CallEiPPv@Base 6.1.2
 _ZN14QwtLegendLabel11qt_metacastEPKc@Base 6.1.2
 _ZN14QwtLegendLabel11setItemModeEN13QwtLegendData4ModeE@Base 6.1.2
 _ZN14QwtLegendLabel13keyPressEventEP9QKeyEvent@Base 6.1.2
 _ZN14QwtLegendLabel15keyReleaseEventEP9QKeyEvent@Base 6.1.2
 _ZN14QwtLegendLabel15mousePressEventEP11QMouseEvent@Base 6.1.2
 _ZN14QwtLegendLabel16staticMetaObjectE@Base 6.1.2
 _ZN14QwtLegendLabel17mouseReleaseEventEP11QMouseEvent@Base 6.1.2
 _ZN14QwtLegendLabel7checkedEb@Base 6.1.2
 _ZN14QwtLegendLabel7clickedEv@Base 6.1.2
 _ZN14QwtLegendLabel7pressedEv@Base 6.1.2
 _ZN14QwtLegendLabel7setDataERK13QwtLegendData@Base 6.1.2
 _ZN14QwtLegendLabel7setDownEb@Base 6.1.2
 _ZN14QwtLegendLabel7setIconERK7QPixmap@Base 6.1.2
 _ZN14QwtLegendLabel7setTextERK7QwtText@Base 6.1.2
 _ZN14QwtLegendLabel8releasedEv@Base 6.1.2
 _ZN14QwtLegendLabelC1EP7QWidget@Base 6.1.2
 _ZN14QwtLegendLabelC2EP7QWidget@Base 6.1.2
 _ZN14QwtLegendLabelD0Ev@Base 6.1.2
 _ZN14QwtLegendLabelD1Ev@Base 6.1.2
 _ZN14QwtLegendLabelD2Ev@Base 6.1.2
 _ZN14QwtPixelMatrix7setRectERK5QRect@Base 6.1.2
 _ZN14QwtPixelMatrixC1ERK5QRect@Base 6.1.2
 _ZN14QwtPixelMatrixC2ERK5QRect@Base 6.1.2
 _ZN14QwtPixelMatrixD1Ev@Base 6.1.2
 _ZN14QwtPixelMatrixD2Ev@Base 6.1.2
 _ZN14QwtPlotSvgItem4initEv@Base 6.1.2
 _ZN14QwtPlotSvgItem8loadDataERK6QRectFRK10QByteArray@Base 6.1.2
 _ZN14QwtPlotSvgItem8loadFileERK6QRectFRK7QString@Base 6.1.2
 _ZN14QwtPlotSvgItem8rendererEv@Base 6.1.2
 _ZN14QwtPlotSvgItemC1ERK7QString@Base 6.1.2
 _ZN14QwtPlotSvgItemC1ERK7QwtText@Base 6.1.2
 _ZN14QwtPlotSvgItemC2ERK7QString@Base 6.1.2
 _ZN14QwtPlotSvgItemC2ERK7QwtText@Base 6.1.2
 _ZN14QwtPlotSvgItemD0Ev@Base 6.1.2
 _ZN14QwtPlotSvgItemD1Ev@Base 6.1.2
 _ZN14QwtPlotSvgItemD2Ev@Base 6.1.2
 _ZN14QwtPointMapper15setBoundingRectERK6QRectF@Base 6.1.2
 _ZN14QwtPointMapper7setFlagENS_18TransformationFlagEb@Base 6.1.2
 _ZN14QwtPointMapper8setFlagsE6QFlagsINS_18TransformationFlagEE@Base 6.1.2
 _ZN14QwtPointMapperC1Ev@Base 6.1.2
 _ZN14QwtPointMapperC2Ev@Base 6.1.2
 _ZN14QwtPointMapperD1Ev@Base 6.1.2
 _ZN14QwtPointMapperD2Ev@Base 6.1.2
 _ZN14QwtScaleEngine10setMarginsEdd@Base 6.1.2
 _ZN14QwtScaleEngine12setAttributeENS_9AttributeEb@Base 6.1.2
 _ZN14QwtScaleEngine12setReferenceEd@Base 6.1.2
 _ZN14QwtScaleEngine13setAttributesE6QFlagsINS_9AttributeEE@Base 6.1.2
 _ZN14QwtScaleEngine17setTransformationEP12QwtTransform@Base 6.1.2
 _ZN14QwtScaleEngine7setBaseEj@Base 6.1.2
 _ZN14QwtScaleEngineC1Ej@Base 6.1.2
 _ZN14QwtScaleEngineC2Ej@Base 6.1.2
 _ZN14QwtScaleEngineD0Ev@Base 6.1.2
 _ZN14QwtScaleEngineD1Ev@Base 6.1.2
 _ZN14QwtScaleEngineD2Ev@Base 6.1.2
 _ZN14QwtScaleWidget10paintEventEP11QPaintEvent@Base 6.1.2
 _ZN14QwtScaleWidget10setSpacingEi@Base 6.1.2
 _ZN14QwtScaleWidget11layoutScaleEb@Base 6.1.2
 _ZN14QwtScaleWidget11qt_metacallEN11QMetaObject4CallEiPPv@Base 6.1.2
 _ZN14QwtScaleWidget11qt_metacastEPKc@Base 6.1.2
 _ZN14QwtScaleWidget11resizeEventEP12QResizeEvent@Base 6.1.2
 _ZN14QwtScaleWidget11scaleChangeEv@Base 6.1.2
 _ZN14QwtScaleWidget11setColorMapERK11QwtIntervalP11QwtColorMap@Base 6.1.2
 _ZN14QwtScaleWidget11setScaleDivERK11QwtScaleDiv@Base 6.1.2
 _ZN14QwtScaleWidget12setAlignmentEN12QwtScaleDraw9AlignmentE@Base 6.1.2
 _ZN14QwtScaleWidget12setScaleDrawEP12QwtScaleDraw@Base 6.1.2
 _ZN14QwtScaleWidget13setBorderDistEii@Base 6.1.2
 _ZN14QwtScaleWidget13setLayoutFlagENS_10LayoutFlagEb@Base 6.1.2
 _ZN14QwtScaleWidget15scaleDivChangedEv@Base 6.1.2
 _ZN14QwtScaleWidget16setColorBarWidthEi@Base 6.1.2
 _ZN14QwtScaleWidget16setLabelRotationEd@Base 6.1.2
 _ZN14QwtScaleWidget16setMinBorderDistEii@Base 6.1.2
 _ZN14QwtScaleWidget16staticMetaObjectE@Base 6.1.2
 _ZN14QwtScaleWidget17setLabelAlignmentE6QFlagsIN2Qt13AlignmentFlagEE@Base 6.1.2
 _ZN14QwtScaleWidget17setTransformationEP12QwtTransform@Base 6.1.2
 _ZN14QwtScaleWidget18setColorBarEnabledEb@Base 6.1.2
 _ZN14QwtScaleWidget8setTitleERK7QString@Base 6.1.2
 _ZN14QwtScaleWidget8setTitleERK7QwtText@Base 6.1.2
 _ZN14QwtScaleWidget9initScaleEN12QwtScaleDraw9AlignmentE@Base 6.1.2
 _ZN14QwtScaleWidget9scaleDrawEv@Base 6.1.2
 _ZN14QwtScaleWidget9setMarginEi@Base 6.1.2
 _ZN14QwtScaleWidgetC1EN12QwtScaleDraw9AlignmentEP7QWidget@Base 6.1.2
 _ZN14QwtScaleWidgetC1EP7QWidget@Base 6.1.2
 _ZN14QwtScaleWidgetC2EN12QwtScaleDraw9AlignmentEP7QWidget@Base 6.1.2
 _ZN14QwtScaleWidgetC2EP7QWidget@Base 6.1.2
 _ZN14QwtScaleWidgetD0Ev@Base 6.1.2
 _ZN14QwtScaleWidgetD1Ev@Base 6.1.2
 _ZN14QwtScaleWidgetD2Ev@Base 6.1.2
 (optional=templinst)_ZN14QwtSeriesStoreI10QwtPoint3DE17setRectOfInterestERK6QRectF@Base 6.1.2
 (optional=templinst)_ZN14QwtSeriesStoreI10QwtPoint3DE7setDataEP13QwtSeriesDataIS0_E@Base 6.1.2
 (optional=templinst)_ZN14QwtSeriesStoreI10QwtPoint3DED2Ev@Base 6.1.4
 (optional=templinst)_ZN14QwtSeriesStoreI12QwtSetSampleE17setRectOfInterestERK6QRectF@Base 6.1.2
 (optional=templinst)_ZN14QwtSeriesStoreI12QwtSetSampleE7setDataEP13QwtSeriesDataIS0_E@Base 6.1.2
 (optional=templinst)_ZN14QwtSeriesStoreI12QwtSetSampleED2Ev@Base 6.1.4
 (optional=templinst)_ZN14QwtSeriesStoreI13QwtOHLCSampleE17setRectOfInterestERK6QRectF@Base 6.1.2
 (optional=templinst)_ZN14QwtSeriesStoreI13QwtOHLCSampleE7setDataEP13QwtSeriesDataIS0_E@Base 6.1.2
 (optional=templinst)_ZN14QwtSeriesStoreI13QwtOHLCSampleED2Ev@Base 6.1.4
 (optional=templinst)_ZN14QwtSeriesStoreI17QwtIntervalSampleE17setRectOfInterestERK6QRectF@Base 6.1.2
 (optional=templinst)_ZN14QwtSeriesStoreI17QwtIntervalSampleE7setDataEP13QwtSeriesDataIS0_E@Base 6.1.2
 (optional=templinst)_ZN14QwtSeriesStoreI17QwtIntervalSampleED2Ev@Base 6.1.4
 (optional=templinst)_ZN14QwtSeriesStoreI7QPointFE17setRectOfInterestERK6QRectF@Base 6.1.2
 (optional=templinst)_ZN14QwtSeriesStoreI7QPointFE7setDataEP13QwtSeriesDataIS0_E@Base 6.1.2
 (optional=templinst)_ZN14QwtSeriesStoreI7QPointFED2Ev@Base 6.1.4
 _ZN14QwtSystemClock5startEv@Base 6.1.2
 _ZN14QwtSystemClock7restartEv@Base 6.1.2
 _ZN14QwtSystemClockC1Ev@Base 6.1.2
 _ZN14QwtSystemClockC2Ev@Base 6.1.2
 _ZN14QwtSystemClockD0Ev@Base 6.1.2
 _ZN14QwtSystemClockD1Ev@Base 6.1.2
 _ZN14QwtSystemClockD2Ev@Base 6.1.2
 (subst)_ZN15QwtCPointerDataC1EPKdS1_{size_t}@Base 6.1.2
 (subst)_ZN15QwtCPointerDataC2EPKdS1_{size_t}@Base 6.1.2
 _ZN15QwtCPointerDataD0Ev@Base 6.1.2
 _ZN15QwtCPointerDataD1Ev@Base 6.1.2
 _ZN15QwtCPointerDataD2Ev@Base 6.1.2
 _ZN15QwtColumnSymbol10setPaletteERK8QPalette@Base 6.1.2
 _ZN15QwtColumnSymbol12setLineWidthEi@Base 6.1.2
 _ZN15QwtColumnSymbol13setFrameStyleENS_10FrameStyleE@Base 6.1.2
 _ZN15QwtColumnSymbol8setStyleENS_5StyleE@Base 6.1.2
 _ZN15QwtColumnSymbolC1ENS_5StyleE@Base 6.1.2
 _ZN15QwtColumnSymbolC2ENS_5StyleE@Base 6.1.2
 _ZN15QwtColumnSymbolD0Ev@Base 6.1.2
 _ZN15QwtColumnSymbolD1Ev@Base 6.1.2
 _ZN15QwtColumnSymbolD2Ev@Base 6.1.2
 _ZN15QwtEventPattern10keyPatternEv@Base 6.1.2
 _ZN15QwtEventPattern12mousePatternEv@Base 6.1.2
 _ZN15QwtEventPattern13setKeyPatternENS_14KeyPatternCodeEi6QFlagsIN2Qt16KeyboardModifierEE@Base 6.1.2
 _ZN15QwtEventPattern13setKeyPatternERK7QVectorINS_10KeyPatternEE@Base 6.1.2
 _ZN15QwtEventPattern14initKeyPatternEv@Base 6.1.2
 _ZN15QwtEventPattern15setMousePatternENS_16MousePatternCodeEN2Qt11MouseButtonE6QFlagsINS1_16KeyboardModifierEE@Base 6.1.2
 _ZN15QwtEventPattern15setMousePatternERK7QVectorINS_12MousePatternEE@Base 6.1.2
 _ZN15QwtEventPattern16initMousePatternEi@Base 6.1.2
 _ZN15QwtEventPatternC1Ev@Base 6.1.2
 _ZN15QwtEventPatternC2Ev@Base 6.1.2
 _ZN15QwtEventPatternD0Ev@Base 6.1.2
 _ZN15QwtEventPatternD1Ev@Base 6.1.2
 _ZN15QwtEventPatternD2Ev@Base 6.1.2
 _ZN15QwtLogTransform6LogMaxE@Base 6.1.2
 _ZN15QwtLogTransform6LogMinE@Base 6.1.2
 _ZN15QwtLogTransformC1Ev@Base 6.1.2
 _ZN15QwtLogTransformC2Ev@Base 6.1.2
 _ZN15QwtLogTransformD0Ev@Base 6.1.2
 _ZN15QwtLogTransformD1Ev@Base 6.1.2
 _ZN15QwtLogTransformD2Ev@Base 6.1.2
 _ZN15QwtPlotBarChart10setSamplesEP13QwtSeriesDataI7QPointFE@Base 6.1.2
 _ZN15QwtPlotBarChart10setSamplesERK7QVectorI7QPointFE@Base 6.1.2
 _ZN15QwtPlotBarChart10setSamplesERK7QVectorIdE@Base 6.1.2
 _ZN15QwtPlotBarChart13setLegendModeENS_10LegendModeE@Base 6.1.2
 _ZN15QwtPlotBarChart4initEv@Base 6.1.2
 _ZN15QwtPlotBarChart9setSymbolEP15QwtColumnSymbol@Base 6.1.2
 _ZN15QwtPlotBarChartC1ERK7QString@Base 6.1.2
 _ZN15QwtPlotBarChartC1ERK7QwtText@Base 6.1.2
 _ZN15QwtPlotBarChartC2ERK7QString@Base 6.1.2
 _ZN15QwtPlotBarChartC2ERK7QwtText@Base 6.1.2
 _ZN15QwtPlotBarChartD0Ev@Base 6.1.2
 _ZN15QwtPlotBarChartD1Ev@Base 6.1.2
 _ZN15QwtPlotBarChartD2Ev@Base 6.1.2
 _ZN15QwtPlotGLCanvas10drawBorderEP8QPainter@Base 6.1.2
 _ZN15QwtPlotGLCanvas10paintEventEP11QPaintEvent@Base 6.1.2
 _ZN15QwtPlotGLCanvas11qt_metacallEN11QMetaObject4CallEiPPv@Base 6.1.2
 _ZN15QwtPlotGLCanvas11qt_metacastEPKc@Base 6.1.2
 _ZN15QwtPlotGLCanvas12setLineWidthEi@Base 6.1.2
 _ZN15QwtPlotGLCanvas13setFrameShapeENS_5ShapeE@Base 6.1.2
 _ZN15QwtPlotGLCanvas13setFrameStyleEi@Base 6.1.2
 _ZN15QwtPlotGLCanvas14drawBackgroundEP8QPainter@Base 6.1.2
 _ZN15QwtPlotGLCanvas14setFrameShadowENS_6ShadowE@Base 6.1.2
 _ZN15QwtPlotGLCanvas15setMidLineWidthEi@Base 6.1.2
 _ZN15QwtPlotGLCanvas16staticMetaObjectE@Base 6.1.2
 _ZN15QwtPlotGLCanvas5eventEP6QEvent@Base 6.1.2
 _ZN15QwtPlotGLCanvas6replotEv@Base 6.1.2
 _ZN15QwtPlotGLCanvas9drawItemsEP8QPainter@Base 6.1.2
 _ZN15QwtPlotGLCanvasC1EP7QwtPlot@Base 6.1.2
 _ZN15QwtPlotGLCanvasC2EP7QwtPlot@Base 6.1.2
 _ZN15QwtPlotGLCanvasD0Ev@Base 6.1.2
 _ZN15QwtPlotGLCanvasD1Ev@Base 6.1.2
 _ZN15QwtPlotGLCanvasD2Ev@Base 6.1.2
 _ZN15QwtPlotRenderer11qt_metacallEN11QMetaObject4CallEiPPv@Base 6.1.2
 _ZN15QwtPlotRenderer11qt_metacastEPKc@Base 6.1.2
 _ZN15QwtPlotRenderer13setLayoutFlagENS_10LayoutFlagEb@Base 6.1.2
 _ZN15QwtPlotRenderer14renderDocumentEP7QwtPlotRK7QStringRK6QSizeFi@Base 6.1.2
 _ZN15QwtPlotRenderer14renderDocumentEP7QwtPlotRK7QStringS4_RK6QSizeFi@Base 6.1.2
 _ZN15QwtPlotRenderer14setDiscardFlagENS_11DiscardFlagEb@Base 6.1.2
 _ZN15QwtPlotRenderer14setLayoutFlagsE6QFlagsINS_10LayoutFlagEE@Base 6.1.2
 _ZN15QwtPlotRenderer15setDiscardFlagsE6QFlagsINS_11DiscardFlagEE@Base 6.1.2
 _ZN15QwtPlotRenderer16staticMetaObjectE@Base 6.1.2
 _ZN15QwtPlotRenderer8exportToEP7QwtPlotRK7QStringRK6QSizeFi@Base 6.1.2
 _ZN15QwtPlotRendererC1EP7QObject@Base 6.1.2
 _ZN15QwtPlotRendererC2EP7QObject@Base 6.1.2
 _ZN15QwtPlotRendererD0Ev@Base 6.1.2
 _ZN15QwtPlotRendererD1Ev@Base 6.1.2
 _ZN15QwtPlotRendererD2Ev@Base 6.1.2
 _ZN15QwtPlotRescaler10setEnabledEb@Base 6.1.2
 _ZN15QwtPlotRescaler11eventFilterEP7QObjectP6QEvent@Base 6.1.2
 _ZN15QwtPlotRescaler14setAspectRatioEd@Base 6.1.2
 _ZN15QwtPlotRescaler14setAspectRatioEid@Base 6.1.2
 _ZN15QwtPlotRescaler15setIntervalHintEiRK11QwtInterval@Base 6.1.2
 _ZN15QwtPlotRescaler16setReferenceAxisEi@Base 6.1.2
 _ZN15QwtPlotRescaler16setRescalePolicyENS_13RescalePolicyE@Base 6.1.2
 _ZN15QwtPlotRescaler17canvasResizeEventEP12QResizeEvent@Base 6.1.2
 _ZN15QwtPlotRescaler21setExpandingDirectionENS_18ExpandingDirectionE@Base 6.1.2
 _ZN15QwtPlotRescaler21setExpandingDirectionEiNS_18ExpandingDirectionE@Base 6.1.2
 _ZN15QwtPlotRescaler4plotEv@Base 6.1.2
 _ZN15QwtPlotRescaler6canvasEv@Base 6.1.2
 _ZN15QwtPlotRescalerC1EP7QWidgetiNS_13RescalePolicyE@Base 6.1.2
 _ZN15QwtPlotRescalerC2EP7QWidgetiNS_13RescalePolicyE@Base 6.1.2
 _ZN15QwtPlotRescalerD0Ev@Base 6.1.2
 _ZN15QwtPlotRescalerD1Ev@Base 6.1.2
 _ZN15QwtPlotRescalerD2Ev@Base 6.1.2
 _ZN15QwtPlotZoneItem11orientationEv@Base 6.1.2
 _ZN15QwtPlotZoneItem11setIntervalERK11QwtInterval@Base 6.1.2
 _ZN15QwtPlotZoneItem11setIntervalEdd@Base 6.1.2
 _ZN15QwtPlotZoneItem14setOrientationEN2Qt11OrientationE@Base 6.1.2
 _ZN15QwtPlotZoneItem6setPenERK4QPen@Base 6.1.2
 _ZN15QwtPlotZoneItem6setPenERK6QColordN2Qt8PenStyleE@Base 6.1.2
 _ZN15QwtPlotZoneItem8setBrushERK6QBrush@Base 6.1.2
 _ZN15QwtPlotZoneItemC1Ev@Base 6.1.2
 _ZN15QwtPlotZoneItemC2Ev@Base 6.1.2
 _ZN15QwtPlotZoneItemD0Ev@Base 6.1.2
 _ZN15QwtPlotZoneItemD1Ev@Base 6.1.2
 _ZN15QwtPlotZoneItemD2Ev@Base 6.1.2
 (optional=templinst)_ZN16QFutureInterfaceIvED0Ev@Base 6.1.2
 (optional=templinst)_ZN16QFutureInterfaceIvED1Ev@Base 6.1.2
 (optional=templinst)_ZN16QFutureInterfaceIvED2Ev@Base 6.1.2
 _ZN16QwtAbstractScale11qt_metacallEN11QMetaObject4CallEiPPv@Base 6.1.2
 _ZN16QwtAbstractScale11qt_metacastEPKc@Base 6.1.2
 _ZN16QwtAbstractScale11scaleChangeEv@Base 6.1.2
 _ZN16QwtAbstractScale11scaleEngineEv@Base 6.1.2
 _ZN16QwtAbstractScale13setLowerBoundEd@Base 6.1.2
 _ZN16QwtAbstractScale13setUpperBoundEd@Base 6.1.2
 _ZN16QwtAbstractScale14setScaleEngineEP14QwtScaleEngine@Base 6.1.2
 _ZN16QwtAbstractScale15updateScaleDrawEv@Base 6.1.2
 _ZN16QwtAbstractScale16setScaleMaxMajorEi@Base 6.1.2
 _ZN16QwtAbstractScale16setScaleMaxMinorEi@Base 6.1.2
 _ZN16QwtAbstractScale16setScaleStepSizeEd@Base 6.1.2
 _ZN16QwtAbstractScale16staticMetaObjectE@Base 6.1.2
 _ZN16QwtAbstractScale17abstractScaleDrawEv@Base 6.1.2
 _ZN16QwtAbstractScale20setAbstractScaleDrawEP20QwtAbstractScaleDraw@Base 6.1.2
 _ZN16QwtAbstractScale7rescaleEddd@Base 6.1.2
 _ZN16QwtAbstractScale8setScaleERK11QwtInterval@Base 6.1.2
 _ZN16QwtAbstractScale8setScaleERK11QwtScaleDiv@Base 6.1.2
 _ZN16QwtAbstractScale8setScaleEdd@Base 6.1.2
 _ZN16QwtAbstractScaleC1EP7QWidget@Base 6.1.2
 _ZN16QwtAbstractScaleC2EP7QWidget@Base 6.1.2
 _ZN16QwtAbstractScaleD0Ev@Base 6.1.2
 _ZN16QwtAbstractScaleD1Ev@Base 6.1.2
 _ZN16QwtAbstractScaleD2Ev@Base 6.1.2
 _ZN16QwtAlphaColorMap8setColorERK6QColor@Base 6.1.2
 _ZN16QwtAlphaColorMapC1ERK6QColor@Base 6.1.2
 _ZN16QwtAlphaColorMapC2ERK6QColor@Base 6.1.2
 _ZN16QwtAlphaColorMapD0Ev@Base 6.1.2
 _ZN16QwtAlphaColorMapD1Ev@Base 6.1.2
 _ZN16QwtAlphaColorMapD2Ev@Base 6.1.2
 _ZN16QwtCircleClipperC1ERK6QRectF@Base 6.1.2
 _ZN16QwtCircleClipperC2ERK6QRectF@Base 6.1.2
 _ZN16QwtDateScaleDraw11setTimeSpecEN2Qt8TimeSpecE@Base 6.1.2
 _ZN16QwtDateScaleDraw12setUtcOffsetEi@Base 6.1.2
 _ZN16QwtDateScaleDraw12setWeek0TypeEN7QwtDate9Week0TypeE@Base 6.1.2
 _ZN16QwtDateScaleDraw13setDateFormatEN7QwtDate12IntervalTypeERK7QString@Base 6.1.2
 _ZN16QwtDateScaleDrawC1EN2Qt8TimeSpecE@Base 6.1.2
 _ZN16QwtDateScaleDrawC2EN2Qt8TimeSpecE@Base 6.1.2
 _ZN16QwtDateScaleDrawD0Ev@Base 6.1.2
 _ZN16QwtDateScaleDrawD1Ev@Base 6.1.2
 _ZN16QwtDateScaleDrawD2Ev@Base 6.1.2
 _ZN16QwtDynGridLayout10invalidateEv@Base 6.1.2
 _ZN16QwtDynGridLayout11PrivateData17updateLayoutCacheEv@Base 6.1.2
 _ZN16QwtDynGridLayout11qt_metacallEN11QMetaObject4CallEiPPv@Base 6.1.2
 _ZN16QwtDynGridLayout11qt_metacastEPKc@Base 6.1.2
 _ZN16QwtDynGridLayout11setGeometryERK5QRect@Base 6.1.2
 _ZN16QwtDynGridLayout13setMaxColumnsEj@Base 6.1.2
 _ZN16QwtDynGridLayout16staticMetaObjectE@Base 6.1.2
 _ZN16QwtDynGridLayout22setExpandingDirectionsE6QFlagsIN2Qt11OrientationEE@Base 6.1.2
 _ZN16QwtDynGridLayout4initEv@Base 6.1.2
 _ZN16QwtDynGridLayout6takeAtEi@Base 6.1.2
 _ZN16QwtDynGridLayout7addItemEP11QLayoutItem@Base 6.1.2
 _ZN16QwtDynGridLayoutC1EP7QWidgetii@Base 6.1.2
 _ZN16QwtDynGridLayoutC1Ei@Base 6.1.2
 _ZN16QwtDynGridLayoutC2EP7QWidgetii@Base 6.1.2
 _ZN16QwtDynGridLayoutC2Ei@Base 6.1.2
 _ZN16QwtDynGridLayoutD0Ev@Base 6.1.2
 _ZN16QwtDynGridLayoutD1Ev@Base 6.1.2
 _ZN16QwtDynGridLayoutD2Ev@Base 6.1.2
 _ZN16QwtNullTransformC1Ev@Base 6.1.2
 _ZN16QwtNullTransformC2Ev@Base 6.1.2
 _ZN16QwtNullTransformD0Ev@Base 6.1.2
 _ZN16QwtNullTransformD1Ev@Base 6.1.2
 _ZN16QwtNullTransformD2Ev@Base 6.1.2
 _ZN16QwtPickerMachine5resetEv@Base 6.1.2
 _ZN16QwtPickerMachine8setStateEi@Base 6.1.2
 _ZN16QwtPickerMachineC1ENS_13SelectionTypeE@Base 6.1.2
 _ZN16QwtPickerMachineC2ENS_13SelectionTypeE@Base 6.1.2
 _ZN16QwtPickerMachineD0Ev@Base 6.1.2
 _ZN16QwtPickerMachineD1Ev@Base 6.1.2
 _ZN16QwtPickerMachineD2Ev@Base 6.1.2
 _ZN16QwtPickerTrackerC1EP9QwtPickerP7QWidget@Base 6.1.2
 _ZN16QwtPickerTrackerC2EP9QwtPickerP7QWidget@Base 6.1.2
 _ZN16QwtPickerTrackerD0Ev@Base 6.1.2
 _ZN16QwtPickerTrackerD1Ev@Base 6.1.2
 _ZN16QwtPickerTrackerD2Ev@Base 6.1.2
 _ZN16QwtPlotHistogram10setSamplesEP13QwtSeriesDataI17QwtIntervalSampleE@Base 6.1.2
 _ZN16QwtPlotHistogram10setSamplesERK7QVectorI17QwtIntervalSampleE@Base 6.1.2
 _ZN16QwtPlotHistogram11setBaselineEd@Base 6.1.2
 _ZN16QwtPlotHistogram4initEv@Base 6.1.2
 _ZN16QwtPlotHistogram6setPenERK4QPen@Base 6.1.2
 _ZN16QwtPlotHistogram6setPenERK6QColordN2Qt8PenStyleE@Base 6.1.2
 _ZN16QwtPlotHistogram8setBrushERK6QBrush@Base 6.1.2
 _ZN16QwtPlotHistogram8setStyleENS_14HistogramStyleE@Base 6.1.2
 _ZN16QwtPlotHistogram9setSymbolEPK15QwtColumnSymbol@Base 6.1.2
 _ZN16QwtPlotHistogramC1ERK7QString@Base 6.1.2
 _ZN16QwtPlotHistogramC1ERK7QwtText@Base 6.1.2
 _ZN16QwtPlotHistogramC2ERK7QString@Base 6.1.2
 _ZN16QwtPlotHistogramC2ERK7QwtText@Base 6.1.2
 _ZN16QwtPlotHistogramD0Ev@Base 6.1.2
 _ZN16QwtPlotHistogramD1Ev@Base 6.1.2
 _ZN16QwtPlotHistogramD2Ev@Base 6.1.2
 _ZN16QwtPlotMagnifier11qt_metacallEN11QMetaObject4CallEiPPv@Base 6.1.2
 _ZN16QwtPlotMagnifier11qt_metacastEPKc@Base 6.1.2
 _ZN16QwtPlotMagnifier14setAxisEnabledEib@Base 6.1.2
 _ZN16QwtPlotMagnifier16staticMetaObjectE@Base 6.1.2
 _ZN16QwtPlotMagnifier4plotEv@Base 6.1.2
 _ZN16QwtPlotMagnifier6canvasEv@Base 6.1.2
 _ZN16QwtPlotMagnifier7rescaleEd@Base 6.1.2
 _ZN16QwtPlotMagnifierC1EP7QWidget@Base 6.1.2
 _ZN16QwtPlotMagnifierC2EP7QWidget@Base 6.1.2
 _ZN16QwtPlotMagnifierD0Ev@Base 6.1.2
 _ZN16QwtPlotMagnifierD1Ev@Base 6.1.2
 _ZN16QwtPlotMagnifierD2Ev@Base 6.1.2
 _ZN16QwtPlotScaleItem10setPaletteERK8QPalette@Base 6.1.2
 _ZN16QwtPlotScaleItem11setPositionEd@Base 6.1.2
 _ZN16QwtPlotScaleItem11setScaleDivERK11QwtScaleDiv@Base 6.1.2
 _ZN16QwtPlotScaleItem12setAlignmentEN12QwtScaleDraw9AlignmentE@Base 6.1.2
 _ZN16QwtPlotScaleItem12setScaleDrawEP12QwtScaleDraw@Base 6.1.2
 _ZN16QwtPlotScaleItem14updateScaleDivERK11QwtScaleDivS2_@Base 6.1.2
 _ZN16QwtPlotScaleItem17setBorderDistanceEi@Base 6.1.2
 _ZN16QwtPlotScaleItem19setScaleDivFromAxisEb@Base 6.1.2
 _ZN16QwtPlotScaleItem7setFontERK5QFont@Base 6.1.2
 _ZN16QwtPlotScaleItem9scaleDrawEv@Base 6.1.2
 _ZN16QwtPlotScaleItemC1EN12QwtScaleDraw9AlignmentEd@Base 6.1.2
 _ZN16QwtPlotScaleItemC2EN12QwtScaleDraw9AlignmentEd@Base 6.1.2
 _ZN16QwtPlotScaleItemD0Ev@Base 6.1.2
 _ZN16QwtPlotScaleItemD1Ev@Base 6.1.2
 _ZN16QwtPlotScaleItemD2Ev@Base 6.1.2
 _ZN16QwtPlotShapeItem10setPolygonERK9QPolygonF@Base 6.1.2
 _ZN16QwtPlotShapeItem13setLegendModeENS_10LegendModeE@Base 6.1.2
 _ZN16QwtPlotShapeItem17setPaintAttributeENS_14PaintAttributeEb@Base 6.1.2
 _ZN16QwtPlotShapeItem18setRenderToleranceEd@Base 6.1.2
 _ZN16QwtPlotShapeItem4initEv@Base 6.1.2
 _ZN16QwtPlotShapeItem6setPenERK4QPen@Base 6.1.2
 _ZN16QwtPlotShapeItem6setPenERK6QColordN2Qt8PenStyleE@Base 6.1.2
 _ZN16QwtPlotShapeItem7setRectERK6QRectF@Base 6.1.2
 _ZN16QwtPlotShapeItem8setBrushERK6QBrush@Base 6.1.2
 _ZN16QwtPlotShapeItem8setShapeERK12QPainterPath@Base 6.1.2
 _ZN16QwtPlotShapeItemC1ERK7QString@Base 6.1.2
 _ZN16QwtPlotShapeItemC1ERK7QwtText@Base 6.1.2
 _ZN16QwtPlotShapeItemC2ERK7QString@Base 6.1.2
 _ZN16QwtPlotShapeItemC2ERK7QwtText@Base 6.1.2
 _ZN16QwtPlotShapeItemD0Ev@Base 6.1.2
 _ZN16QwtPlotShapeItemD1Ev@Base 6.1.2
 _ZN16QwtPlotShapeItemD2Ev@Base 6.1.2
 _ZN16QwtPlotTextLabel15invalidateCacheEv@Base 6.1.2
 _ZN16QwtPlotTextLabel7setTextERK7QwtText@Base 6.1.2
 _ZN16QwtPlotTextLabel9setMarginEi@Base 6.1.2
 _ZN16QwtPlotTextLabelC1Ev@Base 6.1.2
 _ZN16QwtPlotTextLabelC2Ev@Base 6.1.2
 _ZN16QwtPlotTextLabelD0Ev@Base 6.1.2
 _ZN16QwtPlotTextLabelD1Ev@Base 6.1.2
 _ZN16QwtPlotTextLabelD2Ev@Base 6.1.2
 _ZN16QwtSetSeriesDataC1ERK7QVectorI12QwtSetSampleE@Base 6.1.2
 _ZN16QwtSetSeriesDataC2ERK7QVectorI12QwtSetSampleE@Base 6.1.2
 _ZN16QwtSetSeriesDataD0Ev@Base 6.1.2
 _ZN16QwtSetSeriesDataD1Ev@Base 6.1.2
 _ZN16QwtSetSeriesDataD2Ev@Base 6.1.2
 _ZN16QwtWidgetOverlay10paintEventEP11QPaintEvent@Base 6.1.2
 _ZN16QwtWidgetOverlay10updateMaskEv@Base 6.1.2
 _ZN16QwtWidgetOverlay11eventFilterEP7QObjectP6QEvent@Base 6.1.2
 _ZN16QwtWidgetOverlay11resizeEventEP12QResizeEvent@Base 6.1.2
 _ZN16QwtWidgetOverlay11setMaskModeENS_8MaskModeE@Base 6.1.2
 _ZN16QwtWidgetOverlay13setRenderModeENS_10RenderModeE@Base 6.1.2
 _ZN16QwtWidgetOverlay13updateOverlayEv@Base 6.1.2
 _ZN16QwtWidgetOverlayC1EP7QWidget@Base 6.1.2
 _ZN16QwtWidgetOverlayC2EP7QWidget@Base 6.1.2
 _ZN16QwtWidgetOverlayD0Ev@Base 6.1.2
 _ZN16QwtWidgetOverlayD1Ev@Base 6.1.2
 _ZN16QwtWidgetOverlayD2Ev@Base 6.1.2
 (optional=templinst)_ZN17QtMetaTypePrivate13IteratorOwnerIPK7QPointFE5equalEPKPvS7_@Base 6.1.2
 (optional=templinst)_ZN17QtMetaTypePrivate13IteratorOwnerIPK7QPointFE6assignEPPvPKS5_@Base 6.1.2
 (optional=templinst)_ZN17QtMetaTypePrivate13IteratorOwnerIPK7QPointFE7advanceEPPvi@Base 6.1.2
 (optional=templinst)_ZN17QtMetaTypePrivate13IteratorOwnerIPK7QPointFE7destroyEPPv@Base 6.1.2
 (optional=templinst)_ZN17QtMetaTypePrivate23QMetaTypeFunctionHelperI10QwtGraphicLb1EE8DestructEPv@Base 6.1.2
 (optional=templinst)_ZN17QtMetaTypePrivate23QMetaTypeFunctionHelperI10QwtGraphicLb1EE9ConstructEPvPKv@Base 6.1.2
 (optional=templinst)_ZN17QtMetaTypePrivate23QMetaTypeFunctionHelperI7QVectorI7QPointFELb1EE8DestructEPv@Base 6.1.2
 (optional=templinst)_ZN17QtMetaTypePrivate23QMetaTypeFunctionHelperI7QVectorI7QPointFELb1EE9ConstructEPvPKv@Base 6.1.2
 (optional=templinst)_ZN17QtMetaTypePrivate23QMetaTypeFunctionHelperI7QwtTextLb1EE8DestructEPv@Base 6.1.2
 (optional=templinst)_ZN17QtMetaTypePrivate23QMetaTypeFunctionHelperI7QwtTextLb1EE9ConstructEPvPKv@Base 6.1.2
 (optional=templinst)_ZN17QtMetaTypePrivate23QMetaTypeFunctionHelperINS_23QSequentialIterableImplELb1EE8DestructEPv@Base 6.1.2
 (optional=templinst)_ZN17QtMetaTypePrivate23QMetaTypeFunctionHelperINS_23QSequentialIterableImplELb1EE9ConstructEPvPKv@Base 6.1.2
 (optional=templinst)_ZN17QtMetaTypePrivate23QMetaTypeFunctionHelperIP11QwtPlotItemLb1EE8DestructEPv@Base 6.1.2
 (optional=templinst)_ZN17QtMetaTypePrivate23QMetaTypeFunctionHelperIP11QwtPlotItemLb1EE9ConstructEPvPKv@Base 6.1.2
 (optional=templinst)_ZN17QtMetaTypePrivate23QSequentialIterableImpl10moveToImplI7QVectorI7QPointFEEEvPKvPPvNS0_8PositionE@Base 6.1.4
 (optional=templinst)_ZN17QtMetaTypePrivate23QSequentialIterableImpl6atImplI7QVectorI7QPointFEEEPKvS6_i@Base 6.1.2
 (optional=templinst)_ZN17QtMetaTypePrivate23QSequentialIterableImpl7getImplI7QVectorI7QPointFEEENS_11VariantDataEPKPvij@Base 6.1.2
 (optional=templinst)_ZN17QtMetaTypePrivate23QSequentialIterableImpl8sizeImplI7QVectorI7QPointFEEEiPKv@Base 6.1.2
 (optional=templinst)_ZN17QtMetaTypePrivate25ContainerCapabilitiesImplI7QVectorI7QPointFEvE10appendImplEPKvS6_@Base 6.1.4
 _ZN17QwtAbstractLegend11qt_metacallEN11QMetaObject4CallEiPPv@Base 6.1.2
 _ZN17QwtAbstractLegend11qt_metacastEPKc@Base 6.1.2
 _ZN17QwtAbstractLegend16staticMetaObjectE@Base 6.1.2
 _ZN17QwtAbstractLegendC1EP7QWidget@Base 6.1.2
 _ZN17QwtAbstractLegendC2EP7QWidget@Base 6.1.2
 _ZN17QwtAbstractLegendD0Ev@Base 6.1.2
 _ZN17QwtAbstractLegendD1Ev@Base 6.1.2
 _ZN17QwtAbstractLegendD2Ev@Base 6.1.2
 _ZN17QwtAbstractSlider10wheelEventEP11QWheelEvent@Base 6.1.2
 _ZN17QwtAbstractSlider11qt_metacallEN11QMetaObject4CallEiPPv@Base 6.1.2
 _ZN17QwtAbstractSlider11qt_metacastEPKc@Base 6.1.2
 _ZN17QwtAbstractSlider11scaleChangeEv@Base 6.1.2
 _ZN17QwtAbstractSlider11setReadOnlyEb@Base 6.1.2
 _ZN17QwtAbstractSlider11setTrackingEb@Base 6.1.2
 _ZN17QwtAbstractSlider11setWrappingEb@Base 6.1.2
 _ZN17QwtAbstractSlider11sliderMovedEd@Base 6.1.2
 _ZN17QwtAbstractSlider12setPageStepsEj@Base 6.1.2
 _ZN17QwtAbstractSlider12sliderChangeEv@Base 6.1.2
 _ZN17QwtAbstractSlider12valueChangedEd@Base 6.1.2
 _ZN17QwtAbstractSlider13keyPressEventEP9QKeyEvent@Base 6.1.2
 _ZN17QwtAbstractSlider13setTotalStepsEj@Base 6.1.2
 _ZN17QwtAbstractSlider13sliderPressedEv@Base 6.1.2
 _ZN17QwtAbstractSlider14incrementValueEi@Base 6.1.2
 _ZN17QwtAbstractSlider14mouseMoveEventEP11QMouseEvent@Base 6.1.2
 _ZN17QwtAbstractSlider14setSingleStepsEj@Base 6.1.2
 _ZN17QwtAbstractSlider14sliderReleasedEv@Base 6.1.2
 _ZN17QwtAbstractSlider15mousePressEventEP11QMouseEvent@Base 6.1.2
 _ZN17QwtAbstractSlider16setStepAlignmentEb@Base 6.1.2
 _ZN17QwtAbstractSlider16staticMetaObjectE@Base 6.1.2
 _ZN17QwtAbstractSlider17mouseReleaseEventEP11QMouseEvent@Base 6.1.2
 _ZN17QwtAbstractSlider19setInvertedControlsEb@Base 6.1.2
 _ZN17QwtAbstractSlider8setValidEb@Base 6.1.2
 _ZN17QwtAbstractSlider8setValueEd@Base 6.1.2
 _ZN17QwtAbstractSliderC1EP7QWidget@Base 6.1.2
 _ZN17QwtAbstractSliderC2EP7QWidget@Base 6.1.2
 _ZN17QwtAbstractSliderD0Ev@Base 6.1.2
 _ZN17QwtAbstractSliderD1Ev@Base 6.1.2
 _ZN17QwtAbstractSliderD2Ev@Base 6.1.2
 _ZN17QwtIntervalSymbol6setPenERK4QPen@Base 6.1.2
 _ZN17QwtIntervalSymbol6setPenERK6QColordN2Qt8PenStyleE@Base 6.1.2
 _ZN17QwtIntervalSymbol8setBrushERK6QBrush@Base 6.1.2
 _ZN17QwtIntervalSymbol8setStyleENS_5StyleE@Base 6.1.2
 _ZN17QwtIntervalSymbol8setWidthEi@Base 6.1.2
 _ZN17QwtIntervalSymbolC1ENS_5StyleE@Base 6.1.2
 _ZN17QwtIntervalSymbolC1ERKS_@Base 6.1.2
 _ZN17QwtIntervalSymbolC2ENS_5StyleE@Base 6.1.2
 _ZN17QwtIntervalSymbolC2ERKS_@Base 6.1.2
 _ZN17QwtIntervalSymbolD0Ev@Base 6.1.2
 _ZN17QwtIntervalSymbolD1Ev@Base 6.1.2
 _ZN17QwtIntervalSymbolD2Ev@Base 6.1.2
 _ZN17QwtIntervalSymbolaSERKS_@Base 6.1.2
 _ZN17QwtLinearColorMap10ColorStops6insertEdRK6QColor@Base 6.1.2
 _ZN17QwtLinearColorMap12addColorStopEdRK6QColor@Base 6.1.2
 _ZN17QwtLinearColorMap16setColorIntervalERK6QColorS2_@Base 6.1.2
 _ZN17QwtLinearColorMap7setModeENS_4ModeE@Base 6.1.2
 _ZN17QwtLinearColorMapC1EN11QwtColorMap6FormatE@Base 6.1.2
 _ZN17QwtLinearColorMapC1ERK6QColorS2_N11QwtColorMap6FormatE@Base 6.1.2
 _ZN17QwtLinearColorMapC2EN11QwtColorMap6FormatE@Base 6.1.2
 _ZN17QwtLinearColorMapC2ERK6QColorS2_N11QwtColorMap6FormatE@Base 6.1.2
 _ZN17QwtLinearColorMapD0Ev@Base 6.1.2
 _ZN17QwtLinearColorMapD1Ev@Base 6.1.2
 _ZN17QwtLinearColorMapD2Ev@Base 6.1.2
 _ZN17QwtLogScaleEngineC1Ej@Base 6.1.2
 _ZN17QwtLogScaleEngineC2Ej@Base 6.1.2
 _ZN17QwtLogScaleEngineD0Ev@Base 6.1.2
 _ZN17QwtLogScaleEngineD1Ev@Base 6.1.2
 _ZN17QwtLogScaleEngineD2Ev@Base 6.1.2
 _ZN17QwtPainterCommand10pixmapDataEv@Base 6.1.2
 _ZN17QwtPainterCommand4copyERKS_@Base 6.1.2
 _ZN17QwtPainterCommand4pathEv@Base 6.1.2
 _ZN17QwtPainterCommand5resetEv@Base 6.1.2
 _ZN17QwtPainterCommand9imageDataEv@Base 6.1.2
 _ZN17QwtPainterCommand9stateDataEv@Base 6.1.2
 _ZN17QwtPainterCommandC1ERK12QPainterPath@Base 6.1.2
 _ZN17QwtPainterCommandC1ERK17QPaintEngineState@Base 6.1.2
 _ZN17QwtPainterCommandC1ERK6QRectFRK6QImageS2_6QFlagsIN2Qt19ImageConversionFlagEE@Base 6.1.2
 _ZN17QwtPainterCommandC1ERK6QRectFRK7QPixmapS2_@Base 6.1.2
 _ZN17QwtPainterCommandC1ERKS_@Base 6.1.2
 _ZN17QwtPainterCommandC1Ev@Base 6.1.2
 _ZN17QwtPainterCommandC2ERK12QPainterPath@Base 6.1.2
 _ZN17QwtPainterCommandC2ERK17QPaintEngineState@Base 6.1.2
 _ZN17QwtPainterCommandC2ERK6QRectFRK6QImageS2_6QFlagsIN2Qt19ImageConversionFlagEE@Base 6.1.2
 _ZN17QwtPainterCommandC2ERK6QRectFRK7QPixmapS2_@Base 6.1.2
 _ZN17QwtPainterCommandC2ERKS_@Base 6.1.2
 _ZN17QwtPainterCommandC2Ev@Base 6.1.2
 _ZN17QwtPainterCommandD1Ev@Base 6.1.2
 _ZN17QwtPainterCommandD2Ev@Base 6.1.2
 _ZN17QwtPainterCommandaSERKS_@Base 6.1.2
 _ZN17QwtPlotLegendItem10setSpacingEi@Base 6.1.2
 _ZN17QwtPlotLegendItem10setTextPenERK4QPen@Base 6.1.2
 _ZN17QwtPlotLegendItem11clearLegendEv@Base 6.1.2
 _ZN17QwtPlotLegendItem12setAlignmentE6QFlagsIN2Qt13AlignmentFlagEE@Base 6.1.2
 _ZN17QwtPlotLegendItem12setBorderPenERK4QPen@Base 6.1.2
 _ZN17QwtPlotLegendItem12updateLegendEPK11QwtPlotItemRK5QListI13QwtLegendDataE@Base 6.1.2
 _ZN17QwtPlotLegendItem13setItemMarginEi@Base 6.1.2
 _ZN17QwtPlotLegendItem13setMaxColumnsEj@Base 6.1.2
 _ZN17QwtPlotLegendItem14setItemSpacingEi@Base 6.1.2
 _ZN17QwtPlotLegendItem15setBorderRadiusEd@Base 6.1.2
 _ZN17QwtPlotLegendItem17setBackgroundModeENS_14BackgroundModeE@Base 6.1.2
 _ZN17QwtPlotLegendItem17setBorderDistanceEi@Base 6.1.2
 _ZN17QwtPlotLegendItem18setBackgroundBrushERK6QBrush@Base 6.1.2
 _ZN17QwtPlotLegendItem7setFontERK5QFont@Base 6.1.2
 _ZN17QwtPlotLegendItem9setMarginEi@Base 6.1.2
 _ZN17QwtPlotLegendItemC1Ev@Base 6.1.2
 _ZN17QwtPlotLegendItemC2Ev@Base 6.1.2
 _ZN17QwtPlotLegendItemD0Ev@Base 6.1.2
 _ZN17QwtPlotLegendItemD1Ev@Base 6.1.2
 _ZN17QwtPlotLegendItemD2Ev@Base 6.1.2
 _ZN17QwtPlotRasterItem14setCachePolicyENS_11CachePolicyE@Base 6.1.2
 _ZN17QwtPlotRasterItem15invalidateCacheEv@Base 6.1.2
 _ZN17QwtPlotRasterItem17setPaintAttributeENS_14PaintAttributeEb@Base 6.1.2
 _ZN17QwtPlotRasterItem4initEv@Base 6.1.2
 _ZN17QwtPlotRasterItem8setAlphaEi@Base 6.1.2
 _ZN17QwtPlotRasterItemC1ERK7QString@Base 6.1.2
 _ZN17QwtPlotRasterItemC1ERK7QwtText@Base 6.1.2
 _ZN17QwtPlotRasterItemC2ERK7QString@Base 6.1.2
 _ZN17QwtPlotRasterItemC2ERK7QwtText@Base 6.1.2
 _ZN17QwtPlotRasterItemD0Ev@Base 6.1.2
 _ZN17QwtPlotRasterItemD1Ev@Base 6.1.2
 _ZN17QwtPlotRasterItemD2Ev@Base 6.1.2
 _ZN17QwtPlotSeriesItem11dataChangedEv@Base 6.1.2
 _ZN17QwtPlotSeriesItem14setOrientationEN2Qt11OrientationE@Base 6.1.2
 _ZN17QwtPlotSeriesItem14updateScaleDivERK11QwtScaleDivS2_@Base 6.1.2
 _ZN17QwtPlotSeriesItemC1ERK7QString@Base 6.1.2
 _ZN17QwtPlotSeriesItemC1ERK7QwtText@Base 6.1.2
 _ZN17QwtPlotSeriesItemC2ERK7QString@Base 6.1.2
 _ZN17QwtPlotSeriesItemC2ERK7QwtText@Base 6.1.2
 _ZN17QwtPlotSeriesItemD0Ev@Base 6.1.2
 _ZN17QwtPlotSeriesItemD1Ev@Base 6.1.2
 _ZN17QwtPlotSeriesItemD2Ev@Base 6.1.2
 (subst)_ZN17QwtPointArrayDataC1EPKdS1_{size_t}@Base 6.1.2
 _ZN17QwtPointArrayDataC1ERK7QVectorIdES3_@Base 6.1.2
 (subst)_ZN17QwtPointArrayDataC2EPKdS1_{size_t}@Base 6.1.2
 _ZN17QwtPointArrayDataC2ERK7QVectorIdES3_@Base 6.1.2
 _ZN17QwtPointArrayDataD0Ev@Base 6.1.2
 _ZN17QwtPointArrayDataD1Ev@Base 6.1.2
 _ZN17QwtPointArrayDataD2Ev@Base 6.1.2
 _ZN17QwtPowerTransformC1Ed@Base 6.1.2
 _ZN17QwtPowerTransformC2Ed@Base 6.1.2
 _ZN17QwtPowerTransformD0Ev@Base 6.1.2
 _ZN17QwtPowerTransformD1Ev@Base 6.1.2
 _ZN17QwtPowerTransformD2Ev@Base 6.1.2
 _ZN17QwtRichTextEngineC1Ev@Base 6.1.2
 _ZN17QwtRichTextEngineC2Ev@Base 6.1.2
 _ZN17QwtRichTextEngineD0Ev@Base 6.1.2
 _ZN17QwtRichTextEngineD1Ev@Base 6.1.2
 _ZN17QwtRichTextEngineD2Ev@Base 6.1.2
 _ZN17QwtRoundScaleDraw10moveCenterERK7QPointF@Base 6.1.2
 _ZN17QwtRoundScaleDraw13setAngleRangeEdd@Base 6.1.2
 _ZN17QwtRoundScaleDraw9setRadiusEd@Base 6.1.2
 _ZN17QwtRoundScaleDrawC1Ev@Base 6.1.2
 _ZN17QwtRoundScaleDrawC2Ev@Base 6.1.2
 _ZN17QwtRoundScaleDrawD0Ev@Base 6.1.2
 _ZN17QwtRoundScaleDrawD1Ev@Base 6.1.2
 _ZN17QwtRoundScaleDrawD2Ev@Base 6.1.2
 _ZN17QwtSamplingThread11qt_metacallEN11QMetaObject4CallEiPPv@Base 6.1.2
 _ZN17QwtSamplingThread11qt_metacastEPKc@Base 6.1.2
 _ZN17QwtSamplingThread11setIntervalEd@Base 6.1.2
 _ZN17QwtSamplingThread16staticMetaObjectE@Base 6.1.2
 _ZN17QwtSamplingThread3runEv@Base 6.1.2
 _ZN17QwtSamplingThread4stopEv@Base 6.1.2
 _ZN17QwtSamplingThreadC1EP7QObject@Base 6.1.2
 _ZN17QwtSamplingThreadC2EP7QObject@Base 6.1.2
 _ZN17QwtSamplingThreadD0Ev@Base 6.1.2
 _ZN17QwtSamplingThreadD1Ev@Base 6.1.2
 _ZN17QwtSamplingThreadD2Ev@Base 6.1.2
 _ZN17QwtTextEngineDict13setTextEngineEN7QwtText10TextFormatEP13QwtTextEngine@Base 6.1.2
 _ZN17QwtTextEngineDict4dictEv@Base 6.1.2
 _ZN17QwtTextEngineDictC1Ev@Base 6.1.2
 _ZN17QwtTextEngineDictC2Ev@Base 6.1.2
 _ZN17QwtTextEngineDictD1Ev@Base 6.1.2
 _ZN17QwtTextEngineDictD2Ev@Base 6.1.2
 _ZN18QStyleOptionButtonD1Ev@Base 6.1.2
 _ZN18QStyleOptionButtonD2Ev@Base 6.1.2
 _ZN18QwtDateScaleEngine11setMaxWeeksEi@Base 6.1.2
 _ZN18QwtDateScaleEngine11setTimeSpecEN2Qt8TimeSpecE@Base 6.1.2
 _ZN18QwtDateScaleEngine12setUtcOffsetEi@Base 6.1.2
 _ZN18QwtDateScaleEngine12setWeek0TypeEN7QwtDate9Week0TypeE@Base 6.1.2
 _ZN18QwtDateScaleEngineC1EN2Qt8TimeSpecE@Base 6.1.2
 _ZN18QwtDateScaleEngineC2EN2Qt8TimeSpecE@Base 6.1.2
 _ZN18QwtDateScaleEngineD0Ev@Base 6.1.2
 _ZN18QwtDateScaleEngineD1Ev@Base 6.1.2
 _ZN18QwtDateScaleEngineD2Ev@Base 6.1.2
 _ZN18QwtNullPaintDevice10drawPixmapERK6QRectFRK7QPixmapS2_@Base 6.1.2
 _ZN18QwtNullPaintDevice10drawPointsEPK6QPointi@Base 6.1.2
 _ZN18QwtNullPaintDevice10drawPointsEPK7QPointFi@Base 6.1.2
 _ZN18QwtNullPaintDevice11PaintEngine10drawPixmapERK6QRectFRK7QPixmapS3_@Base 6.1.2
 _ZN18QwtNullPaintDevice11PaintEngine10drawPointsEPK6QPointi@Base 6.1.2
 _ZN18QwtNullPaintDevice11PaintEngine10drawPointsEPK7QPointFi@Base 6.1.2
 _ZN18QwtNullPaintDevice11PaintEngine11drawEllipseERK5QRect@Base 6.1.2
 _ZN18QwtNullPaintDevice11PaintEngine11drawEllipseERK6QRectF@Base 6.1.2
 _ZN18QwtNullPaintDevice11PaintEngine11drawPolygonEPK6QPointiN12QPaintEngine15PolygonDrawModeE@Base 6.1.2
 _ZN18QwtNullPaintDevice11PaintEngine11drawPolygonEPK7QPointFiN12QPaintEngine15PolygonDrawModeE@Base 6.1.2
 _ZN18QwtNullPaintDevice11PaintEngine11updateStateERK17QPaintEngineState@Base 6.1.2
 _ZN18QwtNullPaintDevice11PaintEngine12drawTextItemERK7QPointFRK9QTextItem@Base 6.1.2
 _ZN18QwtNullPaintDevice11PaintEngine15drawTiledPixmapERK6QRectFRK7QPixmapRK7QPointF@Base 6.1.2
 _ZN18QwtNullPaintDevice11PaintEngine3endEv@Base 6.1.2
 _ZN18QwtNullPaintDevice11PaintEngine5beginEP12QPaintDevice@Base 6.1.2
 _ZN18QwtNullPaintDevice11PaintEngine8drawPathERK12QPainterPath@Base 6.1.2
 _ZN18QwtNullPaintDevice11PaintEngine9drawImageERK6QRectFRK6QImageS3_6QFlagsIN2Qt19ImageConversionFlagEE@Base 6.1.2
 _ZN18QwtNullPaintDevice11PaintEngine9drawLinesEPK5QLinei@Base 6.1.2
 _ZN18QwtNullPaintDevice11PaintEngine9drawLinesEPK6QLineFi@Base 6.1.2
 _ZN18QwtNullPaintDevice11PaintEngine9drawRectsEPK5QRecti@Base 6.1.2
 _ZN18QwtNullPaintDevice11PaintEngine9drawRectsEPK6QRectFi@Base 6.1.2
 _ZN18QwtNullPaintDevice11PaintEngineC1Ev@Base 6.1.2
 _ZN18QwtNullPaintDevice11PaintEngineC2Ev@Base 6.1.2
 _ZN18QwtNullPaintDevice11PaintEngineD0Ev@Base 6.1.2
 _ZN18QwtNullPaintDevice11PaintEngineD1Ev@Base 6.1.2
 _ZN18QwtNullPaintDevice11PaintEngineD2Ev@Base 6.1.2
 _ZN18QwtNullPaintDevice11drawEllipseERK5QRect@Base 6.1.2
 _ZN18QwtNullPaintDevice11drawEllipseERK6QRectF@Base 6.1.2
 _ZN18QwtNullPaintDevice11drawPolygonEPK6QPointiN12QPaintEngine15PolygonDrawModeE@Base 6.1.2
 _ZN18QwtNullPaintDevice11drawPolygonEPK7QPointFiN12QPaintEngine15PolygonDrawModeE@Base 6.1.2
 _ZN18QwtNullPaintDevice11updateStateERK17QPaintEngineState@Base 6.1.2
 _ZN18QwtNullPaintDevice12drawTextItemERK7QPointFRK9QTextItem@Base 6.1.2
 _ZN18QwtNullPaintDevice15drawTiledPixmapERK6QRectFRK7QPixmapRK7QPointF@Base 6.1.2
 _ZN18QwtNullPaintDevice7setModeENS_4ModeE@Base 6.1.2
 _ZN18QwtNullPaintDevice8drawPathERK12QPainterPath@Base 6.1.2
 _ZN18QwtNullPaintDevice9drawImageERK6QRectFRK6QImageS2_6QFlagsIN2Qt19ImageConversionFlagEE@Base 6.1.2
 _ZN18QwtNullPaintDevice9drawLinesEPK5QLinei@Base 6.1.2
 _ZN18QwtNullPaintDevice9drawLinesEPK6QLineFi@Base 6.1.2
 _ZN18QwtNullPaintDevice9drawRectsEPK5QRecti@Base 6.1.2
 _ZN18QwtNullPaintDevice9drawRectsEPK6QRectFi@Base 6.1.2
 _ZN18QwtNullPaintDeviceC1Ev@Base 6.1.2
 _ZN18QwtNullPaintDeviceC2Ev@Base 6.1.2
 _ZN18QwtNullPaintDeviceD0Ev@Base 6.1.2
 _ZN18QwtNullPaintDeviceD1Ev@Base 6.1.2
 _ZN18QwtNullPaintDeviceD2Ev@Base 6.1.2
 _ZN18QwtPlainTextEngineC1Ev@Base 6.1.2
 _ZN18QwtPlainTextEngineC2Ev@Base 6.1.2
 _ZN18QwtPlainTextEngineD0Ev@Base 6.1.2
 _ZN18QwtPlainTextEngineD1Ev@Base 6.1.2
 _ZN18QwtPlainTextEngineD2Ev@Base 6.1.2
 _ZN18QwtPlotSpectrogram11setColorMapEP11QwtColorMap@Base 6.1.2
 _ZN18QwtPlotSpectrogram13setConrecFlagEN13QwtRasterData10ConrecFlagEb@Base 6.1.2
 _ZN18QwtPlotSpectrogram14setDisplayModeENS_11DisplayModeEb@Base 6.1.2
 _ZN18QwtPlotSpectrogram16setContourLevelsERK5QListIdE@Base 6.1.2
 _ZN18QwtPlotSpectrogram20setDefaultContourPenERK4QPen@Base 6.1.2
 _ZN18QwtPlotSpectrogram20setDefaultContourPenERK6QColordN2Qt8PenStyleE@Base 6.1.2
 _ZN18QwtPlotSpectrogram4dataEv@Base 6.1.2
 _ZN18QwtPlotSpectrogram7setDataEP13QwtRasterData@Base 6.1.2
 _ZN18QwtPlotSpectrogramC1ERK7QString@Base 6.1.2
 _ZN18QwtPlotSpectrogramC2ERK7QString@Base 6.1.2
 _ZN18QwtPlotSpectrogramD0Ev@Base 6.1.2
 _ZN18QwtPlotSpectrogramD1Ev@Base 6.1.2
 _ZN18QwtPlotSpectrogramD2Ev@Base 6.1.2
 _ZN18QwtPointSeriesDataC1ERK7QVectorI7QPointFE@Base 6.1.2
 _ZN18QwtPointSeriesDataC2ERK7QVectorI7QPointFE@Base 6.1.2
 _ZN18QwtPointSeriesDataD0Ev@Base 6.1.2
 _ZN18QwtPointSeriesDataD1Ev@Base 6.1.2
 _ZN18QwtPointSeriesDataD2Ev@Base 6.1.2
 _ZN18QwtScaleArithmetic14divideIntervalEdij@Base 6.1.2
 _ZN18QwtScaleArithmetic7ceilEpsEdd@Base 6.1.2
 _ZN18QwtScaleArithmetic8floorEpsEdd@Base 6.1.2
 _ZN18QwtScaleArithmetic9divideEpsEdd@Base 6.1.2
 _ZN19QwtCompassScaleDraw11setLabelMapERK4QMapId7QStringE@Base 6.1.2
 _ZN19QwtCompassScaleDrawC1ERK4QMapId7QStringE@Base 6.1.2
 _ZN19QwtCompassScaleDrawC1Ev@Base 6.1.2
 _ZN19QwtCompassScaleDrawC2ERK4QMapId7QStringE@Base 6.1.2
 _ZN19QwtCompassScaleDrawC2Ev@Base 6.1.2
 _ZN19QwtCompassScaleDrawD0Ev@Base 6.1.2
 _ZN19QwtCompassScaleDrawD1Ev@Base 6.1.2
 _ZN19QwtCompassScaleDrawD2Ev@Base 6.1.2
 _ZN19QwtCompassWindArrowC1ENS_5StyleERK6QColorS3_@Base 6.1.2
 _ZN19QwtCompassWindArrowC2ENS_5StyleERK6QColorS3_@Base 6.1.2
 _ZN19QwtCompassWindArrowD0Ev@Base 6.1.2
 _ZN19QwtCompassWindArrowD1Ev@Base 6.1.2
 _ZN19QwtCompassWindArrowD2Ev@Base 6.1.2
 _ZN19QwtDialSimpleNeedle8setWidthEd@Base 6.1.2
 _ZN19QwtDialSimpleNeedleC1ENS_5StyleEbRK6QColorS3_@Base 6.1.2
 _ZN19QwtDialSimpleNeedleC2ENS_5StyleEbRK6QColorS3_@Base 6.1.2
 _ZN19QwtDialSimpleNeedleD0Ev@Base 6.1.2
 _ZN19QwtDialSimpleNeedleD1Ev@Base 6.1.2
 _ZN19QwtDialSimpleNeedleD2Ev@Base 6.1.2
 _ZN19QwtLegendLayoutItem11setGeometryERK5QRect@Base 6.1.2
 _ZN19QwtLegendLayoutItem7setDataERK13QwtLegendData@Base 6.1.2
 _ZN19QwtLegendLayoutItemC1EPK17QwtPlotLegendItemPK11QwtPlotItem@Base 6.1.2
 _ZN19QwtLegendLayoutItemC2EPK17QwtPlotLegendItemPK11QwtPlotItem@Base 6.1.2
 _ZN19QwtLegendLayoutItemD0Ev@Base 6.1.2
 _ZN19QwtLegendLayoutItemD1Ev@Base 6.1.2
 _ZN19QwtLegendLayoutItemD2Ev@Base 6.1.2
 _ZN19QwtMatrixRasterData11setIntervalEN2Qt4AxisERK11QwtInterval@Base 6.1.2
 _ZN19QwtMatrixRasterData14setValueMatrixERK7QVectorIdEi@Base 6.1.2
 _ZN19QwtMatrixRasterData15setResampleModeENS_12ResampleModeE@Base 6.1.2
 _ZN19QwtMatrixRasterData6updateEv@Base 6.1.2
 _ZN19QwtMatrixRasterData8setValueEiid@Base 6.1.2
 _ZN19QwtMatrixRasterDataC1Ev@Base 6.1.2
 _ZN19QwtMatrixRasterDataC2Ev@Base 6.1.2
 _ZN19QwtMatrixRasterDataD0Ev@Base 6.1.2
 _ZN19QwtMatrixRasterDataD1Ev@Base 6.1.2
 _ZN19QwtMatrixRasterDataD2Ev@Base 6.1.2
 _ZN19QwtPickerRubberbandC1EP9QwtPickerP7QWidget@Base 6.1.2
 _ZN19QwtPickerRubberbandC2EP9QwtPickerP7QWidget@Base 6.1.2
 _ZN19QwtPickerRubberbandD0Ev@Base 6.1.2
 _ZN19QwtPickerRubberbandD1Ev@Base 6.1.2
 _ZN19QwtPickerRubberbandD2Ev@Base 6.1.2
 _ZN19QwtPlotSpectroCurve10setSamplesEP13QwtSeriesDataI10QwtPoint3DE@Base 6.1.2
 _ZN19QwtPlotSpectroCurve10setSamplesERK7QVectorI10QwtPoint3DE@Base 6.1.2
 _ZN19QwtPlotSpectroCurve11setColorMapEP11QwtColorMap@Base 6.1.2
 _ZN19QwtPlotSpectroCurve11setPenWidthEd@Base 6.1.2
 _ZN19QwtPlotSpectroCurve13setColorRangeERK11QwtInterval@Base 6.1.2
 _ZN19QwtPlotSpectroCurve17setPaintAttributeENS_14PaintAttributeEb@Base 6.1.2
 _ZN19QwtPlotSpectroCurve4initEv@Base 6.1.2
 _ZN19QwtPlotSpectroCurveC1ERK7QString@Base 6.1.2
 _ZN19QwtPlotSpectroCurveC1ERK7QwtText@Base 6.1.2
 _ZN19QwtPlotSpectroCurveC2ERK7QString@Base 6.1.2
 _ZN19QwtPlotSpectroCurveC2ERK7QwtText@Base 6.1.2
 _ZN19QwtPlotSpectroCurveD0Ev@Base 6.1.2
 _ZN19QwtPlotSpectroCurveD1Ev@Base 6.1.2
 _ZN19QwtPlotSpectroCurveD2Ev@Base 6.1.2
 _ZN19QwtPlotTradingCurve10setSamplesEP13QwtSeriesDataI13QwtOHLCSampleE@Base 6.1.2
 _ZN19QwtPlotTradingCurve10setSamplesERK7QVectorI13QwtOHLCSampleE@Base 6.1.2
 _ZN19QwtPlotTradingCurve12setSymbolPenERK4QPen@Base 6.1.2
 _ZN19QwtPlotTradingCurve12setSymbolPenERK6QColordN2Qt8PenStyleE@Base 6.1.2
 _ZN19QwtPlotTradingCurve14setSymbolBrushENS_9DirectionERK6QBrush@Base 6.1.2
 _ZN19QwtPlotTradingCurve14setSymbolStyleENS_11SymbolStyleE@Base 6.1.2
 _ZN19QwtPlotTradingCurve15setSymbolExtentEd@Base 6.1.2
 _ZN19QwtPlotTradingCurve17setMaxSymbolWidthEd@Base 6.1.2
 _ZN19QwtPlotTradingCurve17setMinSymbolWidthEd@Base 6.1.2
 _ZN19QwtPlotTradingCurve17setPaintAttributeENS_14PaintAttributeEb@Base 6.1.2
 _ZN19QwtPlotTradingCurve4initEv@Base 6.1.2
 _ZN19QwtPlotTradingCurveC1ERK7QString@Base 6.1.2
 _ZN19QwtPlotTradingCurveC1ERK7QwtText@Base 6.1.2
 _ZN19QwtPlotTradingCurveC2ERK7QString@Base 6.1.2
 _ZN19QwtPlotTradingCurveC2ERK7QwtText@Base 6.1.2
 _ZN19QwtPlotTradingCurveD0Ev@Base 6.1.2
 _ZN19QwtPlotTradingCurveD1Ev@Base 6.1.2
 _ZN19QwtPlotTradingCurveD2Ev@Base 6.1.2
 _ZN19QwtRichTextDocumentC1ERK7QStringiRK5QFont@Base 6.1.4
 _ZN19QwtRichTextDocumentC2ERK7QStringiRK5QFont@Base 6.1.4
 _ZN19QwtRichTextDocumentD0Ev@Base 6.1.2
 _ZN19QwtRichTextDocumentD1Ev@Base 6.1.2
 _ZN19QwtRichTextDocumentD2Ev@Base 6.1.2
 _ZN19QwtTradingChartDataC1ERK7QVectorI13QwtOHLCSampleE@Base 6.1.2
 _ZN19QwtTradingChartDataC2ERK7QVectorI13QwtOHLCSampleE@Base 6.1.2
 _ZN19QwtTradingChartDataD0Ev@Base 6.1.2
 _ZN19QwtTradingChartDataD1Ev@Base 6.1.2
 _ZN19QwtTradingChartDataD2Ev@Base 6.1.2
 _ZN20QwtAbstractScaleDraw10setSpacingEd@Base 6.1.2
 _ZN20QwtAbstractScaleDraw11setPenWidthEi@Base 6.1.2
 _ZN20QwtAbstractScaleDraw11setScaleDivERK11QwtScaleDiv@Base 6.1.2
 _ZN20QwtAbstractScaleDraw13setTickLengthEN11QwtScaleDiv8TickTypeEd@Base 6.1.2
 _ZN20QwtAbstractScaleDraw15enableComponentENS_14ScaleComponentEb@Base 6.1.2
 _ZN20QwtAbstractScaleDraw15invalidateCacheEv@Base 6.1.2
 _ZN20QwtAbstractScaleDraw16setMinimumExtentEd@Base 6.1.2
 _ZN20QwtAbstractScaleDraw17setTransformationEP12QwtTransform@Base 6.1.2
 _ZN20QwtAbstractScaleDraw8scaleMapEv@Base 6.1.2
 _ZN20QwtAbstractScaleDrawC1Ev@Base 6.1.2
 _ZN20QwtAbstractScaleDrawC2Ev@Base 6.1.2
 _ZN20QwtAbstractScaleDrawD0Ev@Base 6.1.2
 _ZN20QwtAbstractScaleDrawD1Ev@Base 6.1.2
 _ZN20QwtAbstractScaleDrawD2Ev@Base 6.1.2
 _ZN20QwtLinearScaleEngineC1Ej@Base 6.1.2
 _ZN20QwtLinearScaleEngineC2Ej@Base 6.1.2
 _ZN20QwtLinearScaleEngineD0Ev@Base 6.1.2
 _ZN20QwtLinearScaleEngineD1Ev@Base 6.1.2
 _ZN20QwtLinearScaleEngineD2Ev@Base 6.1.2
 _ZN20QwtPlotDirectPainter10drawSeriesEP17QwtPlotSeriesItemii@Base 6.1.2
 _ZN20QwtPlotDirectPainter11eventFilterEP7QObjectP6QEvent@Base 6.1.2
 _ZN20QwtPlotDirectPainter11setClippingEb@Base 6.1.2
 _ZN20QwtPlotDirectPainter12setAttributeENS_9AttributeEb@Base 6.1.2
 _ZN20QwtPlotDirectPainter13setClipRegionERK7QRegion@Base 6.1.2
 _ZN20QwtPlotDirectPainter5resetEv@Base 6.1.2
 _ZN20QwtPlotDirectPainterC1EP7QObject@Base 6.1.2
 _ZN20QwtPlotDirectPainterC2EP7QObject@Base 6.1.2
 _ZN20QwtPlotDirectPainterD0Ev@Base 6.1.2
 _ZN20QwtPlotDirectPainterD1Ev@Base 6.1.2
 _ZN20QwtPlotDirectPainterD2Ev@Base 6.1.2
 _ZN20QwtPlotIntervalCurve10setSamplesEP13QwtSeriesDataI17QwtIntervalSampleE@Base 6.1.2
 _ZN20QwtPlotIntervalCurve10setSamplesERK7QVectorI17QwtIntervalSampleE@Base 6.1.2
 _ZN20QwtPlotIntervalCurve17setPaintAttributeENS_14PaintAttributeEb@Base 6.1.2
 _ZN20QwtPlotIntervalCurve4initEv@Base 6.1.2
 _ZN20QwtPlotIntervalCurve6setPenERK4QPen@Base 6.1.2
 _ZN20QwtPlotIntervalCurve6setPenERK6QColordN2Qt8PenStyleE@Base 6.1.2
 _ZN20QwtPlotIntervalCurve8setBrushERK6QBrush@Base 6.1.2
 _ZN20QwtPlotIntervalCurve8setStyleENS_10CurveStyleE@Base 6.1.2
 _ZN20QwtPlotIntervalCurve9setSymbolEPK17QwtIntervalSymbol@Base 6.1.2
 _ZN20QwtPlotIntervalCurveC1ERK7QString@Base 6.1.2
 _ZN20QwtPlotIntervalCurveC1ERK7QwtText@Base 6.1.2
 _ZN20QwtPlotIntervalCurveC2ERK7QString@Base 6.1.2
 _ZN20QwtPlotIntervalCurveC2ERK7QwtText@Base 6.1.2
 _ZN20QwtPlotIntervalCurveD0Ev@Base 6.1.2
 _ZN20QwtPlotIntervalCurveD1Ev@Base 6.1.2
 _ZN20QwtPlotIntervalCurveD2Ev@Base 6.1.2
 _ZN20QwtPlotMultiBarChart10setSamplesEP13QwtSeriesDataI12QwtSetSampleE@Base 6.1.2
 _ZN20QwtPlotMultiBarChart10setSamplesERK7QVectorI12QwtSetSampleE@Base 6.1.2
 _ZN20QwtPlotMultiBarChart10setSamplesERK7QVectorIS0_IdEE@Base 6.1.2
 _ZN20QwtPlotMultiBarChart12setBarTitlesERK5QListI7QwtTextE@Base 6.1.2
 _ZN20QwtPlotMultiBarChart14resetSymbolMapEv@Base 6.1.2
 _ZN20QwtPlotMultiBarChart4initEv@Base 6.1.2
 _ZN20QwtPlotMultiBarChart6symbolEi@Base 6.1.2
 _ZN20QwtPlotMultiBarChart8setStyleENS_10ChartStyleE@Base 6.1.2
 _ZN20QwtPlotMultiBarChart9setSymbolEiP15QwtColumnSymbol@Base 6.1.2
 _ZN20QwtPlotMultiBarChartC1ERK7QString@Base 6.1.2
 _ZN20QwtPlotMultiBarChartC1ERK7QwtText@Base 6.1.2
 _ZN20QwtPlotMultiBarChartC2ERK7QString@Base 6.1.2
 _ZN20QwtPlotMultiBarChartC2ERK7QwtText@Base 6.1.2
 _ZN20QwtPlotMultiBarChartD0Ev@Base 6.1.2
 _ZN20QwtPlotMultiBarChartD1Ev@Base 6.1.2
 _ZN20QwtPlotMultiBarChartD2Ev@Base 6.1.2
 _ZN20QwtPoint3DSeriesDataC1ERK7QVectorI10QwtPoint3DE@Base 6.1.2
 _ZN20QwtPoint3DSeriesDataC2ERK7QVectorI10QwtPoint3DE@Base 6.1.2
 _ZN20QwtPoint3DSeriesDataD0Ev@Base 6.1.2
 _ZN20QwtPoint3DSeriesDataD1Ev@Base 6.1.2
 _ZN20QwtPoint3DSeriesDataD2Ev@Base 6.1.2
 _ZN20QwtSimpleCompassRose12setNumThornsEi@Base 6.1.2
 _ZN20QwtSimpleCompassRose15setShrinkFactorEd@Base 6.1.2
 _ZN20QwtSimpleCompassRose17setNumThornLevelsEi@Base 6.1.2
 _ZN20QwtSimpleCompassRose8drawRoseEP8QPainterRK8QPaletteRK7QPointFdddiid@Base 6.1.2
 _ZN20QwtSimpleCompassRose8setWidthEd@Base 6.1.2
 _ZN20QwtSimpleCompassRoseC1Eii@Base 6.1.2
 _ZN20QwtSimpleCompassRoseC2Eii@Base 6.1.2
 _ZN20QwtSimpleCompassRoseD0Ev@Base 6.1.2
 _ZN20QwtSimpleCompassRoseD1Ev@Base 6.1.2
 _ZN20QwtSimpleCompassRoseD2Ev@Base 6.1.2
 _ZN20QwtSplineCurveFitter10setFitModeENS_7FitModeE@Base 6.1.2
 _ZN20QwtSplineCurveFitter13setSplineSizeEi@Base 6.1.2
 _ZN20QwtSplineCurveFitter6splineEv@Base 6.1.2
 _ZN20QwtSplineCurveFitter9setSplineERK9QwtSpline@Base 6.1.2
 _ZN20QwtSplineCurveFitterC1Ev@Base 6.1.2
 _ZN20QwtSplineCurveFitterC2Ev@Base 6.1.2
 _ZN20QwtSplineCurveFitterD0Ev@Base 6.1.2
 _ZN20QwtSplineCurveFitterD1Ev@Base 6.1.2
 _ZN20QwtSplineCurveFitterD2Ev@Base 6.1.2
 _ZN21QwtIntervalSeriesDataC1ERK7QVectorI17QwtIntervalSampleE@Base 6.1.2
 _ZN21QwtIntervalSeriesDataC2ERK7QVectorI17QwtIntervalSampleE@Base 6.1.2
 _ZN21QwtIntervalSeriesDataD0Ev@Base 6.1.2
 _ZN21QwtIntervalSeriesDataD1Ev@Base 6.1.2
 _ZN21QwtIntervalSeriesDataD2Ev@Base 6.1.2
 _ZN21QwtStyleSheetRecorder11updateStateERK17QPaintEngineState@Base 6.1.2
 _ZN21QwtStyleSheetRecorder14setCornerRectsERK12QPainterPath@Base 6.1.4
 _ZN21QwtStyleSheetRecorder6BorderD1Ev@Base 6.1.4
 _ZN21QwtStyleSheetRecorder6BorderD2Ev@Base 6.1.4
 _ZN21QwtStyleSheetRecorder8drawPathERK12QPainterPath@Base 6.1.2
 _ZN21QwtStyleSheetRecorder9drawRectsEPK5QRecti@Base 6.1.4
 _ZN21QwtStyleSheetRecorder9drawRectsEPK6QRectFi@Base 6.1.2
 _ZN21QwtStyleSheetRecorderD0Ev@Base 6.1.2
 _ZN21QwtStyleSheetRecorderD1Ev@Base 6.1.2
 _ZN21QwtStyleSheetRecorderD2Ev@Base 6.1.2
 _ZN21QwtSyntheticPointData11setIntervalERK11QwtInterval@Base 6.1.2
 _ZN21QwtSyntheticPointData17setRectOfInterestERK6QRectF@Base 6.1.2
 (subst)_ZN21QwtSyntheticPointData7setSizeE{size_t}@Base 6.1.2
 (subst)_ZN21QwtSyntheticPointDataC1E{size_t}RK11QwtInterval@Base 6.1.2
 (subst)_ZN21QwtSyntheticPointDataC2E{size_t}RK11QwtInterval@Base 6.1.2
 _ZN21QwtWeedingCurveFitter12setChunkSizeEj@Base 6.1.2
 _ZN21QwtWeedingCurveFitter12setToleranceEd@Base 6.1.2
 _ZN21QwtWeedingCurveFitterC1Ed@Base 6.1.2
 _ZN21QwtWeedingCurveFitterC2Ed@Base 6.1.2
 _ZN21QwtWeedingCurveFitterD0Ev@Base 6.1.2
 _ZN21QwtWeedingCurveFitterD1Ev@Base 6.1.2
 _ZN21QwtWeedingCurveFitterD2Ev@Base 6.1.2
 _ZN22QwtCompassMagnetNeedleC1ENS_5StyleERK6QColorS3_@Base 6.1.2
 _ZN22QwtCompassMagnetNeedleC2ENS_5StyleERK6QColorS3_@Base 6.1.2
 _ZN22QwtCompassMagnetNeedleD0Ev@Base 6.1.2
 _ZN22QwtCompassMagnetNeedleD1Ev@Base 6.1.2
 _ZN22QwtCompassMagnetNeedleD2Ev@Base 6.1.2
 _ZN23QwtAnalogClockScaleDrawD0Ev@Base 6.1.2
 _ZN23QwtAnalogClockScaleDrawD1Ev@Base 6.1.2
 _ZN23QwtAnalogClockScaleDrawD2Ev@Base 6.1.2
 _ZN23QwtPickerPolygonMachine10transitionERK15QwtEventPatternPK6QEvent@Base 6.1.2
 _ZN23QwtPickerPolygonMachineC1Ev@Base 6.1.2
 _ZN23QwtPickerPolygonMachineC2Ev@Base 6.1.2
 _ZN23QwtPickerPolygonMachineD0Ev@Base 6.1.2
 _ZN23QwtPickerPolygonMachineD1Ev@Base 6.1.2
 _ZN23QwtPickerPolygonMachineD2Ev@Base 6.1.2
 _ZN23QwtPickerTrackerMachine10transitionERK15QwtEventPatternPK6QEvent@Base 6.1.2
 _ZN23QwtPickerTrackerMachineC1Ev@Base 6.1.2
 _ZN23QwtPickerTrackerMachineC2Ev@Base 6.1.2
 _ZN23QwtPickerTrackerMachineD0Ev@Base 6.1.2
 _ZN23QwtPickerTrackerMachineD1Ev@Base 6.1.2
 _ZN23QwtPickerTrackerMachineD2Ev@Base 6.1.2
 _ZN23QwtPlotAbstractBarChart10setSpacingEi@Base 6.1.2
 _ZN23QwtPlotAbstractBarChart11setBaselineEd@Base 6.1.2
 _ZN23QwtPlotAbstractBarChart13setLayoutHintEd@Base 6.1.2
 _ZN23QwtPlotAbstractBarChart15setLayoutPolicyENS_12LayoutPolicyE@Base 6.1.2
 _ZN23QwtPlotAbstractBarChart9setMarginEi@Base 6.1.2
 _ZN23QwtPlotAbstractBarChartC1ERK7QwtText@Base 6.1.2
 _ZN23QwtPlotAbstractBarChartC2ERK7QwtText@Base 6.1.2
 _ZN23QwtPlotAbstractBarChartD0Ev@Base 6.1.2
 _ZN23QwtPlotAbstractBarChartD1Ev@Base 6.1.2
 _ZN23QwtPlotAbstractBarChartD2Ev@Base 6.1.2
 _ZN24QwtPickerDragLineMachine10transitionERK15QwtEventPatternPK6QEvent@Base 6.1.2
 _ZN24QwtPickerDragLineMachineC1Ev@Base 6.1.2
 _ZN24QwtPickerDragLineMachineC2Ev@Base 6.1.2
 _ZN24QwtPickerDragLineMachineD0Ev@Base 6.1.2
 _ZN24QwtPickerDragLineMachineD1Ev@Base 6.1.2
 _ZN24QwtPickerDragLineMachineD2Ev@Base 6.1.2
 _ZN24QwtPickerDragRectMachine10transitionERK15QwtEventPatternPK6QEvent@Base 6.1.2
 _ZN24QwtPickerDragRectMachineC1Ev@Base 6.1.2
 _ZN24QwtPickerDragRectMachineC2Ev@Base 6.1.2
 _ZN24QwtPickerDragRectMachineD0Ev@Base 6.1.2
 _ZN24QwtPickerDragRectMachineD1Ev@Base 6.1.2
 _ZN24QwtPickerDragRectMachineD2Ev@Base 6.1.2
 _ZN25QwtPickerClickRectMachine10transitionERK15QwtEventPatternPK6QEvent@Base 6.1.2
 _ZN25QwtPickerClickRectMachineC1Ev@Base 6.1.2
 _ZN25QwtPickerClickRectMachineC2Ev@Base 6.1.2
 _ZN25QwtPickerClickRectMachineD0Ev@Base 6.1.2
 _ZN25QwtPickerClickRectMachineD1Ev@Base 6.1.2
 _ZN25QwtPickerClickRectMachineD2Ev@Base 6.1.2
 _ZN25QwtPickerDragPointMachine10transitionERK15QwtEventPatternPK6QEvent@Base 6.1.2
 _ZN25QwtPickerDragPointMachineC1Ev@Base 6.1.2
 _ZN25QwtPickerDragPointMachineC2Ev@Base 6.1.2
 _ZN25QwtPickerDragPointMachineD0Ev@Base 6.1.2
 _ZN25QwtPickerDragPointMachineD1Ev@Base 6.1.2
 _ZN25QwtPickerDragPointMachineD2Ev@Base 6.1.2
 _ZN26QwtPickerClickPointMachine10transitionERK15QwtEventPatternPK6QEvent@Base 6.1.2
 _ZN26QwtPickerClickPointMachineC1Ev@Base 6.1.2
 _ZN26QwtPickerClickPointMachineC2Ev@Base 6.1.2
 _ZN26QwtPickerClickPointMachineD0Ev@Base 6.1.2
 _ZN26QwtPickerClickPointMachineD1Ev@Base 6.1.2
 _ZN26QwtPickerClickPointMachineD2Ev@Base 6.1.2
 (optional=templinst)_ZN4QMapIPK11QwtPlotItem5QListIP19QwtLegendLayoutItemEE13detach_helperEv@Base 6.1.2
 (optional=templinst)_ZN4QMapId7QStringE6insertERKdRKS0_@Base 6.1.4
 (optional=templinst)_ZN4QMapId7QStringEC1ERKS1_@Base 6.1.3
 (optional=templinst)_ZN4QMapId7QStringEC2ERKS1_@Base 6.1.3
 (optional=templinst)_ZN4QMapId7QStringED1Ev@Base 6.1.2
 (optional=templinst)_ZN4QMapId7QStringED2Ev@Base 6.1.2
 (optional=templinst)_ZN4QMapId9QPolygonFE13detach_helperEv@Base 6.1.2
 (optional=templinst)_ZN4QMapId9QPolygonFED1Ev@Base 6.1.2
 (optional=templinst)_ZN4QMapId9QPolygonFED2Ev@Base 6.1.2
 (optional=templinst)_ZN4QMapIi8QVariantE13detach_helperEv@Base 6.1.2
 (optional=templinst)_ZN4QMapIi8QVariantEC1ERKS1_@Base 6.1.3
 (optional=templinst)_ZN4QMapIi8QVariantEC2ERKS1_@Base 6.1.3
 (optional=templinst)_ZN4QMapIiP13QwtTextEngineE13detach_helperEv@Base 6.1.2
 (optional=templinst)_ZN4QMapIiP15QwtColumnSymbolE13detach_helperEv@Base 6.1.2
 (optional=templinst)_ZN5QListI10QByteArrayED1Ev@Base 6.1.2
 (optional=templinst)_ZN5QListI10QByteArrayED2Ev@Base 6.1.2
 (optional=templinst)_ZN5QListI12QPainterPathE18detach_helper_growEii@Base 6.1.2
 (optional=templinst)_ZN5QListI12QPainterPathE6appendERKS0_@Base 6.1.2
 (optional=templinst)_ZN5QListI12QPainterPathED1Ev@Base 6.1.2
 (optional=templinst)_ZN5QListI12QPainterPathED2Ev@Base 6.1.2
 (optional=templinst)_ZN5QListI13QwtLegendDataE18detach_helper_growEii@Base 6.1.2
 (optional=templinst)_ZN5QListI13QwtLegendDataE6appendERKS0_@Base 6.1.2
 (optional=templinst)_ZN5QListI13QwtLegendDataED1Ev@Base 6.1.2
 (optional=templinst)_ZN5QListI13QwtLegendDataED2Ev@Base 6.1.2
 (optional=templinst)_ZN5QListI5QRectE13detach_helperEi@Base 6.1.2
 (optional=templinst)_ZN5QListI5QRectE18detach_helper_growEii@Base 6.1.2
 (optional=templinst)_ZN5QListI5QRectE6appendERKS0_@Base 6.1.2
 (optional=templinst)_ZN5QListI5QRectED1Ev@Base 6.1.2
 (optional=templinst)_ZN5QListI5QRectED2Ev@Base 6.1.2
 (optional=templinst)_ZN5QListI6QRectFE18detach_helper_growEii@Base 6.1.2
 (optional=templinst)_ZN5QListI6QRectFE6appendERKS0_@Base 6.1.2
 (optional=templinst)_ZN5QListI6QRectFED1Ev@Base 6.1.2
 (optional=templinst)_ZN5QListI6QRectFED2Ev@Base 6.1.2
 (optional=templinst)_ZN5QListI7QFutureIvEE13detach_helperEi@Base 6.1.2
 (optional=templinst)_ZN5QListI7QFutureIvEE18detach_helper_growEii@Base 6.1.2
 (optional=templinst)_ZN5QListI7QFutureIvEE6appendERKS1_@Base 6.1.2
 (optional=templinst)_ZN5QListI7QFutureIvEED1Ev@Base 6.1.2
 (optional=templinst)_ZN5QListI7QFutureIvEED2Ev@Base 6.1.2
 (optional=templinst)_ZN5QListI7QPointFE13detach_helperEi@Base 6.1.2
 (optional=templinst)_ZN5QListI7QPointFE18detach_helper_growEii@Base 6.1.2
 (optional=templinst)_ZN5QListI7QPointFE6appendERKS0_@Base 6.1.2
 (optional=templinst)_ZN5QListI7QPointFEC1ERKS1_@Base 6.1.2
 (optional=templinst)_ZN5QListI7QPointFEC2ERKS1_@Base 6.1.2
 (optional=templinst)_ZN5QListI7QPointFED1Ev@Base 6.1.2
 (optional=templinst)_ZN5QListI7QPointFED2Ev@Base 6.1.2
 (optional=templinst)_ZN5QListI7QStringE18detach_helper_growEii@Base 6.1.2
 (optional=templinst)_ZN5QListI7QStringE6appendERKS0_@Base 6.1.2
 (optional=templinst)_ZN5QListI7QStringED1Ev@Base 6.1.2
 (optional=templinst)_ZN5QListI7QStringED2Ev@Base 6.1.2
 (optional=templinst)_ZN5QListI7QwtTextE13detach_helperEi@Base 6.1.2
 (optional=templinst)_ZN5QListI7QwtTextEC1ERKS1_@Base 6.1.2
 (optional=templinst)_ZN5QListI7QwtTextEC2ERKS1_@Base 6.1.2
 (optional=templinst)_ZN5QListI7QwtTextED1Ev@Base 6.1.2
 (optional=templinst)_ZN5QListI7QwtTextED2Ev@Base 6.1.2
 (optional=templinst)_ZN5QListI9QPolygonFED1Ev@Base 6.1.2
 (optional=templinst)_ZN5QListI9QPolygonFED2Ev@Base 6.1.2
 (optional=templinst)_ZN5QListIN12QwtLegendMap5EntryEE13detach_helperEi@Base 6.1.2
 (optional=templinst)_ZN5QListIN12QwtLegendMap5EntryEE18detach_helper_growEii@Base 6.1.2
 (optional=templinst)_ZN5QListIN12QwtLegendMap5EntryEE6appendERKS1_@Base 6.1.2
 (optional=templinst)_ZN5QListIN12QwtLegendMap5EntryEED1Ev@Base 6.1.4
 (optional=templinst)_ZN5QListIN12QwtLegendMap5EntryEED2Ev@Base 6.1.4
 (optional=templinst)_ZN5QListIN16QwtPickerMachine7CommandEE18detach_helper_growEii@Base 6.1.2
 (optional=templinst)_ZN5QListIN16QwtPickerMachine7CommandEE6appendERKS1_@Base 6.1.2
 (optional=templinst)_ZN5QListIN16QwtPickerMachine7CommandEED1Ev@Base 6.1.2
 (optional=templinst)_ZN5QListIN16QwtPickerMachine7CommandEED2Ev@Base 6.1.2
 (optional=templinst)_ZN5QListIP11QLayoutItemE18detach_helper_growEii@Base 6.1.2
 (optional=templinst)_ZN5QListIP11QLayoutItemE6appendERKS1_@Base 6.1.2
 (optional=templinst)_ZN5QListIP11QwtPlotItemE18detach_helper_growEii@Base 6.1.2
 (optional=templinst)_ZN5QListIP11QwtPlotItemE6appendERKS1_@Base 6.1.2
 (optional=templinst)_ZN5QListIP11QwtPlotItemEC1ERKS2_@Base 6.1.2
 (optional=templinst)_ZN5QListIP11QwtPlotItemEC2ERKS2_@Base 6.1.2
 (optional=templinst)_ZN5QListIP11QwtPlotItemED1Ev@Base 6.1.2
 (optional=templinst)_ZN5QListIP11QwtPlotItemED2Ev@Base 6.1.2
 (optional=templinst)_ZN5QListIP19QwtLegendLayoutItemE18detach_helper_growEii@Base 6.1.2
 (optional=templinst|arch=alpha amd64 armel hppa mips mips64el mipsel powerpcspe sparc64)_ZN5QListIP19QwtLegendLayoutItemE6appendERKS1_@Base 6.1.2
 (optional=templinst)_ZN5QListIP19QwtLegendLayoutItemEC1ERKS2_@Base 6.1.2
 (optional=templinst)_ZN5QListIP19QwtLegendLayoutItemEC2ERKS2_@Base 6.1.2
 (optional=templinst)_ZN5QListIP19QwtLegendLayoutItemED1Ev@Base 6.1.2
 (optional=templinst)_ZN5QListIP19QwtLegendLayoutItemED2Ev@Base 6.1.2
 (optional=templinst)_ZN5QListIP7QObjectEC1ERKS2_@Base 6.1.3
 (optional=templinst)_ZN5QListIP7QObjectEC2ERKS2_@Base 6.1.3
 (optional=templinst)_ZN5QListIP7QWidgetE13detach_helperEi@Base 6.1.2
 (optional=templinst)_ZN5QListIP7QWidgetE18detach_helper_growEii@Base 6.1.2
 (optional=templinst)_ZN5QListIP7QWidgetE6appendERKS1_@Base 6.1.2
 (optional=templinst)_ZN5QListIP7QWidgetEC1ERKS2_@Base 6.1.2
 (optional=templinst)_ZN5QListIP7QWidgetEC2ERKS2_@Base 6.1.2
 (optional=templinst)_ZN5QListIP7QWidgetED1Ev@Base 6.1.2
 (optional=templinst)_ZN5QListIP7QWidgetED2Ev@Base 6.1.2
 (optional=templinst)_ZN5QListIPK11QwtPlotItemE18detach_helper_growEii@Base 6.1.2
 (optional=templinst|arch=alpha amd64 armel hppa mips mips64el mipsel powerpcspe sparc64)_ZN5QListIPK11QwtPlotItemE6appendERKS2_@Base 6.1.4
 (optional=templinst)_ZN5QListIdE13detach_helperEi@Base 6.1.2
 (optional=templinst)_ZN5QListIdE18detach_helper_growEii@Base 6.1.2
 (optional=templinst)_ZN5QListIdE6appendERKd@Base 6.1.2
 (optional=templinst)_ZN5QListIdEC1ERKS0_@Base 6.1.2
 (optional=templinst)_ZN5QListIdEC2ERKS0_@Base 6.1.2
 (optional=templinst)_ZN5QListIdED1Ev@Base 6.1.2
 (optional=templinst)_ZN5QListIdED2Ev@Base 6.1.2
 _ZN7QStringD1Ev@Base 6.1.2
 _ZN7QStringD2Ev@Base 6.1.2
 (optional=templinst)_ZN7QVectorI10QwtPoint3DED1Ev@Base 6.1.4
 (optional=templinst)_ZN7QVectorI10QwtPoint3DED2Ev@Base 6.1.4
 (optional=templinst)_ZN7QVectorI11QwtIntervalE6appendEOS0_@Base 6.1.4
 (optional=templinst)_ZN7QVectorI11QwtIntervalE7reallocEi6QFlagsIN10QArrayData16AllocationOptionEE@Base 6.1.4
 (optional=templinst)_ZN7QVectorI11QwtIntervalED1Ev@Base 6.1.4
 (optional=templinst)_ZN7QVectorI11QwtIntervalED2Ev@Base 6.1.4
 (optional=templinst)_ZN7QVectorI12QwtSetSampleE7reallocEi6QFlagsIN10QArrayData16AllocationOptionEE@Base 6.1.4
 (optional=templinst)_ZN7QVectorI12QwtSetSampleEC1ERKS1_@Base 6.1.3
 (optional=templinst)_ZN7QVectorI12QwtSetSampleEC2ERKS1_@Base 6.1.3
 (optional=templinst)_ZN7QVectorI12QwtSetSampleED1Ev@Base 6.1.2
 (optional=templinst)_ZN7QVectorI12QwtSetSampleED2Ev@Base 6.1.2
 (optional=templinst)_ZN7QVectorI13QwtOHLCSampleED1Ev@Base 6.1.4
 (optional=templinst)_ZN7QVectorI13QwtOHLCSampleED2Ev@Base 6.1.4
 (optional=templinst)_ZN7QVectorI17QwtIntervalSampleED1Ev@Base 6.1.4
 (optional=templinst)_ZN7QVectorI17QwtIntervalSampleED2Ev@Base 6.1.4
 (optional=templinst)_ZN7QVectorI17QwtPainterCommandE6appendEOS0_@Base 6.1.4
 (optional=templinst)_ZN7QVectorI17QwtPainterCommandE7reallocEi6QFlagsIN10QArrayData16AllocationOptionEE@Base 6.1.4
 (optional=templinst)_ZN7QVectorI17QwtPainterCommandED1Ev@Base 6.1.4
 (optional=templinst)_ZN7QVectorI17QwtPainterCommandED2Ev@Base 6.1.4
 (optional=templinst)_ZN7QVectorI5QPairId6QColorEED1Ev@Base 6.1.2
 (optional=templinst)_ZN7QVectorI5QPairId6QColorEED2Ev@Base 6.1.2
 (optional=templinst)_ZN7QVectorI5QRectE7reallocEi6QFlagsIN10QArrayData16AllocationOptionEE@Base 6.1.4
 (optional=templinst)_ZN7QVectorI5QRectED1Ev@Base 6.1.2
 (optional=templinst)_ZN7QVectorI5QRectED2Ev@Base 6.1.2
 (optional=templinst)_ZN7QVectorI5QSizeE6resizeEi@Base 6.1.4
 (optional=templinst)_ZN7QVectorI5QSizeE7reallocEi6QFlagsIN10QArrayData16AllocationOptionEE@Base 6.1.4
 (optional=templinst)_ZN7QVectorI5QSizeED1Ev@Base 6.1.4
 (optional=templinst)_ZN7QVectorI5QSizeED2Ev@Base 6.1.4
 (optional=templinst)_ZN7QVectorI6QPointE6appendERKS0_@Base 6.1.4
 (optional=templinst)_ZN7QVectorI6QPointE6resizeEi@Base 6.1.2
 (optional=templinst)_ZN7QVectorI6QPointE7reallocEi6QFlagsIN10QArrayData16AllocationOptionEE@Base 6.1.4
 (optional=templinst)_ZN7QVectorI6QPointEC1Ei@Base 6.1.2
 (optional=templinst)_ZN7QVectorI6QPointEC2Ei@Base 6.1.2
 (optional=templinst)_ZN7QVectorI6QPointED1Ev@Base 6.1.2
 (optional=templinst)_ZN7QVectorI6QPointED2Ev@Base 6.1.2
 (optional=templinst)_ZN7QVectorI6QRectFE6appendEOS0_@Base 6.1.4
 (optional=templinst)_ZN7QVectorI6QRectFE6appendERKS0_@Base 6.1.2
 (optional=templinst)_ZN7QVectorI6QRectFE6resizeEi@Base 6.1.3
 (optional=templinst)_ZN7QVectorI6QRectFE7reallocEi6QFlagsIN10QArrayData16AllocationOptionEE@Base 6.1.4
 (optional=templinst)_ZN7QVectorI6QRectFED1Ev@Base 6.1.2
 (optional=templinst)_ZN7QVectorI6QRectFED2Ev@Base 6.1.2
 (optional=templinst)_ZN7QVectorI7QPointFE6appendEOS0_@Base 6.1.4
 (optional=templinst)_ZN7QVectorI7QPointFE6appendERKS0_@Base 6.1.2
 (optional=templinst)_ZN7QVectorI7QPointFE6resizeEi@Base 6.1.2
 (optional=templinst)_ZN7QVectorI7QPointFE7reallocEi6QFlagsIN10QArrayData16AllocationOptionEE@Base 6.1.4
 (optional=templinst)_ZN7QVectorI7QPointFEC1Ei@Base 6.1.2
 (optional=templinst)_ZN7QVectorI7QPointFEC2Ei@Base 6.1.2
 (optional=templinst)_ZN7QVectorI7QPointFED1Ev@Base 6.1.2
 (optional=templinst)_ZN7QVectorI7QPointFED2Ev@Base 6.1.2
 (optional=templinst)_ZN7QVectorI7QPointFEpLERKS1_@Base 6.1.2
 (optional=templinst)_ZN7QVectorIN10QwtGraphic8PathInfoEE6appendEOS1_@Base 6.1.4
 (optional=templinst)_ZN7QVectorIN10QwtGraphic8PathInfoEE7reallocEi6QFlagsIN10QArrayData16AllocationOptionEE@Base 6.1.4
 (optional=templinst)_ZN7QVectorIN10QwtGraphic8PathInfoEEC1ERKS2_@Base 6.1.3
 (optional=templinst)_ZN7QVectorIN10QwtGraphic8PathInfoEEC2ERKS2_@Base 6.1.3
 (optional=templinst)_ZN7QVectorIN10QwtGraphic8PathInfoEED1Ev@Base 6.1.4
 (optional=templinst)_ZN7QVectorIN10QwtGraphic8PathInfoEED2Ev@Base 6.1.4
 (optional=templinst)_ZN7QVectorIN15QwtEventPattern10KeyPatternEE6resizeEi@Base 6.1.4
 (optional=templinst)_ZN7QVectorIN15QwtEventPattern10KeyPatternEE7reallocEi6QFlagsIN10QArrayData16AllocationOptionEE@Base 6.1.4
 (optional=templinst)_ZN7QVectorIN15QwtEventPattern10KeyPatternEED1Ev@Base 6.1.4
 (optional=templinst)_ZN7QVectorIN15QwtEventPattern10KeyPatternEED2Ev@Base 6.1.4
 (optional=templinst)_ZN7QVectorIN15QwtEventPattern12MousePatternEE6resizeEi@Base 6.1.4
 (optional=templinst)_ZN7QVectorIN15QwtEventPattern12MousePatternEE7reallocEi6QFlagsIN10QArrayData16AllocationOptionEE@Base 6.1.4
 (optional=templinst)_ZN7QVectorIN15QwtEventPattern12MousePatternEED1Ev@Base 6.1.4
 (optional=templinst)_ZN7QVectorIN15QwtEventPattern12MousePatternEED2Ev@Base 6.1.4
 (optional=templinst)_ZN7QVectorIN17QwtLinearColorMap10ColorStops9ColorStopEE6resizeEi@Base 6.1.2
 (optional=templinst)_ZN7QVectorIN17QwtLinearColorMap10ColorStops9ColorStopEE7reallocEi6QFlagsIN10QArrayData16AllocationOptionEE@Base 6.1.4
 (optional=templinst)_ZN7QVectorIN17QwtLinearColorMap10ColorStops9ColorStopEE7reserveEi@Base 6.1.4
 (optional=templinst)_ZN7QVectorIN17QwtLinearColorMap10ColorStops9ColorStopEED1Ev@Base 6.1.2
 (optional=templinst)_ZN7QVectorIN17QwtLinearColorMap10ColorStops9ColorStopEED2Ev@Base 6.1.2
 (optional=templinst)_ZN7QVectorIN21QwtWeedingCurveFitter4LineEE6appendERKS1_@Base 6.1.2
 (optional=templinst)_ZN7QVectorIN21QwtWeedingCurveFitter4LineEE6resizeEi@Base 6.1.4
 (optional=templinst)_ZN7QVectorIN21QwtWeedingCurveFitter4LineEE7reallocEi6QFlagsIN10QArrayData16AllocationOptionEE@Base 6.1.4
 (optional=templinst)_ZN7QVectorIN21QwtWeedingCurveFitter4LineEED1Ev@Base 6.1.4
 (optional=templinst)_ZN7QVectorIN21QwtWeedingCurveFitter4LineEED2Ev@Base 6.1.4
 (optional=templinst)_ZN7QVectorIN27QAbstractTextDocumentLayout9SelectionEED1Ev@Base 6.1.4
 (optional=templinst)_ZN7QVectorIN27QAbstractTextDocumentLayout9SelectionEED2Ev@Base 6.1.4
 (optional=templinst)_ZN7QVectorIP9QwtPickerE7reallocEi6QFlagsIN10QArrayData16AllocationOptionEE@Base 6.1.4
 (optional=templinst)_ZN7QVectorIP9QwtPickerED1Ev@Base 6.1.2
 (optional=templinst)_ZN7QVectorIP9QwtPickerED2Ev@Base 6.1.2
 (optional=templinst)_ZN7QVectorIbE7reallocEi6QFlagsIN10QArrayData16AllocationOptionEE@Base 6.1.4
 (optional=templinst)_ZN7QVectorIbEC1EiRKb@Base 6.1.3
 (optional=templinst)_ZN7QVectorIbEC2EiRKb@Base 6.1.3
 (optional=templinst)_ZN7QVectorIbED1Ev@Base 6.1.4
 (optional=templinst)_ZN7QVectorIbED2Ev@Base 6.1.4
 (optional=templinst)_ZN7QVectorIdE6appendERKd@Base 6.1.2
 (optional=templinst)_ZN7QVectorIdE6resizeEi@Base 6.1.2
 (optional=templinst)_ZN7QVectorIdE7reallocEi6QFlagsIN10QArrayData16AllocationOptionEE@Base 6.1.4
 (optional=templinst)_ZN7QVectorIdEC1ERKS0_@Base 6.1.3
 (optional=templinst)_ZN7QVectorIdEC1Ei@Base 6.1.2
 (optional=templinst)_ZN7QVectorIdEC2ERKS0_@Base 6.1.3
 (optional=templinst)_ZN7QVectorIdEC2Ei@Base 6.1.2
 (optional=templinst)_ZN7QVectorIdED1Ev@Base 6.1.2
 (optional=templinst)_ZN7QVectorIdED2Ev@Base 6.1.2
 (optional=templinst)_ZN7QVectorIiE7reallocEi6QFlagsIN10QArrayData16AllocationOptionEE@Base 6.1.4
 (optional=templinst)_ZN7QVectorIiEC1Ei@Base 6.1.2
 (optional=templinst)_ZN7QVectorIiEC2Ei@Base 6.1.2
 (optional=templinst)_ZN7QVectorIiED1Ev@Base 6.1.2
 (optional=templinst)_ZN7QVectorIiED2Ev@Base 6.1.2
 (optional=templinst)_ZN7QVectorIjE7reallocEi6QFlagsIN10QArrayData16AllocationOptionEE@Base 6.1.4
 (optional=templinst)_ZN7QVectorIjED1Ev@Base 6.1.4
 (optional=templinst)_ZN7QVectorIjED2Ev@Base 6.1.4
 _ZN7QwtDate10toDateTimeEdN2Qt8TimeSpecE@Base 6.1.2
 _ZN7QwtDate10weekNumberERK5QDateNS_9Week0TypeE@Base 6.1.2
 _ZN7QwtDate11dateOfWeek0EiNS_9Week0TypeE@Base 6.1.2
 _ZN7QwtDate4ceilERK9QDateTimeNS_12IntervalTypeE@Base 6.1.2
 _ZN7QwtDate5floorERK9QDateTimeNS_12IntervalTypeE@Base 6.1.2
 _ZN7QwtDate7maxDateEv@Base 6.1.2
 _ZN7QwtDate7minDateEv@Base 6.1.2
 _ZN7QwtDate8toDoubleERK9QDateTime@Base 6.1.2
 _ZN7QwtDate8toStringERK9QDateTimeRK7QStringNS_9Week0TypeE@Base 6.1.2
 _ZN7QwtDate9utcOffsetERK9QDateTime@Base 6.1.2
 _ZN7QwtDial10paintEventEP11QPaintEvent@Base 6.1.2
 _ZN7QwtDial10wheelEventEP11QWheelEvent@Base 6.1.2
 _ZN7QwtDial11changeEventEP6QEvent@Base 6.1.2
 _ZN7QwtDial11qt_metacallEN11QMetaObject4CallEiPPv@Base 6.1.2
 _ZN7QwtDial11qt_metacastEPKc@Base 6.1.2
 _ZN7QwtDial11scaleChangeEv@Base 6.1.2
 _ZN7QwtDial11setScaleArcEdd@Base 6.1.2
 _ZN7QwtDial12setLineWidthEi@Base 6.1.2
 _ZN7QwtDial12setScaleDrawEP17QwtRoundScaleDraw@Base 6.1.2
 _ZN7QwtDial12sliderChangeEv@Base 6.1.2
 _ZN7QwtDial13setAngleRangeEdd@Base 6.1.2
 _ZN7QwtDial14setFrameShadowENS_6ShadowE@Base 6.1.2
 _ZN7QwtDial14setMaxScaleArcEd@Base 6.1.2
 _ZN7QwtDial14setMinScaleArcEd@Base 6.1.2
 _ZN7QwtDial15invalidateCacheEv@Base 6.1.2
 _ZN7QwtDial16staticMetaObjectE@Base 6.1.2
 _ZN7QwtDial6needleEv@Base 6.1.2
 _ZN7QwtDial7setModeENS_4ModeE@Base 6.1.2
 _ZN7QwtDial9drawFrameEP8QPainter@Base 6.1.2
 _ZN7QwtDial9scaleDrawEv@Base 6.1.2
 _ZN7QwtDial9setNeedleEP13QwtDialNeedle@Base 6.1.2
 _ZN7QwtDial9setOriginEd@Base 6.1.2
 _ZN7QwtDialC1EP7QWidget@Base 6.1.2
 _ZN7QwtDialC2EP7QWidget@Base 6.1.2
 _ZN7QwtDialD0Ev@Base 6.1.2
 _ZN7QwtDialD1Ev@Base 6.1.2
 _ZN7QwtDialD2Ev@Base 6.1.2
 _ZN7QwtKnob10paintEventEP11QPaintEvent@Base 6.1.2
 _ZN7QwtKnob11changeEventEP6QEvent@Base 6.1.2
 _ZN7QwtKnob11qt_metacallEN11QMetaObject4CallEiPPv@Base 6.1.2
 _ZN7QwtKnob11qt_metacastEPKc@Base 6.1.2
 _ZN7QwtKnob11setNumTurnsEi@Base 6.1.2
 _ZN7QwtKnob12setAlignmentE6QFlagsIN2Qt13AlignmentFlagEE@Base 6.1.2
 _ZN7QwtKnob12setKnobStyleENS_9KnobStyleE@Base 6.1.2
 _ZN7QwtKnob12setKnobWidthEi@Base 6.1.2
 _ZN7QwtKnob12setScaleDrawEP17QwtRoundScaleDraw@Base 6.1.2
 _ZN7QwtKnob13setMarkerSizeEi@Base 6.1.2
 _ZN7QwtKnob13setTotalAngleEd@Base 6.1.2
 _ZN7QwtKnob14setBorderWidthEi@Base 6.1.2
 _ZN7QwtKnob14setMarkerStyleENS_11MarkerStyleE@Base 6.1.2
 _ZN7QwtKnob16staticMetaObjectE@Base 6.1.2
 _ZN7QwtKnob9scaleDrawEv@Base 6.1.2
 _ZN7QwtKnobC1EP7QWidget@Base 6.1.2
 _ZN7QwtKnobC2EP7QWidget@Base 6.1.2
 _ZN7QwtKnobD0Ev@Base 6.1.2
 _ZN7QwtKnobD1Ev@Base 6.1.2
 _ZN7QwtKnobD2Ev@Base 6.1.2
 _ZN7QwtPlot10attachItemEP11QwtPlotItemb@Base 6.1.2
 _ZN7QwtPlot10axisWidgetEi@Base 6.1.2
 _ZN7QwtPlot10drawCanvasEP8QPainter@Base 6.1.2
 _ZN7QwtPlot10enableAxisEib@Base 6.1.2
 _ZN7QwtPlot10plotLayoutEv@Base 6.1.2
 _ZN7QwtPlot10titleLabelEv@Base 6.1.2
 _ZN7QwtPlot10updateAxesEv@Base 6.1.2
 _ZN7QwtPlot11autoRefreshEv@Base 6.1.2
 _ZN7QwtPlot11eventFilterEP7QObjectP6QEvent@Base 6.1.2
 _ZN7QwtPlot11footerLabelEv@Base 6.1.2
 _ZN7QwtPlot11qt_metacallEN11QMetaObject4CallEiPPv@Base 6.1.2
 _ZN7QwtPlot11qt_metacastEPKc@Base 6.1.2
 _ZN7QwtPlot11resizeEventEP12QResizeEvent@Base 6.1.2
 _ZN7QwtPlot11setAxisFontEiRK5QFont@Base 6.1.2
 _ZN7QwtPlot12initAxesDataEv@Base 6.1.2
 _ZN7QwtPlot12insertLegendEP17QwtAbstractLegendNS_14LegendPositionEd@Base 6.1.2
 _ZN7QwtPlot12itemAttachedEP11QwtPlotItemb@Base 6.1.2
 _ZN7QwtPlot12setAxisScaleEiddd@Base 6.1.2
 _ZN7QwtPlot12setAxisTitleEiRK7QString@Base 6.1.2
 _ZN7QwtPlot12setAxisTitleEiRK7QwtText@Base 6.1.2
 _ZN7QwtPlot12updateLayoutEv@Base 6.1.2
 _ZN7QwtPlot12updateLegendEPK11QwtPlotItem@Base 6.1.2
 _ZN7QwtPlot12updateLegendEv@Base 6.1.2
 _ZN7QwtPlot13axisScaleDrawEi@Base 6.1.2
 _ZN7QwtPlot13setAutoReplotEb@Base 6.1.2
 _ZN7QwtPlot13setPlotLayoutEP13QwtPlotLayout@Base 6.1.2
 _ZN7QwtPlot14deleteAxesDataEv@Base 6.1.2
 _ZN7QwtPlot15applyPropertiesERK7QString@Base 6.1.2
 _ZN7QwtPlot15axisScaleEngineEi@Base 6.1.2
 _ZN7QwtPlot15setAxisMaxMajorEii@Base 6.1.2
 _ZN7QwtPlot15setAxisMaxMinorEii@Base 6.1.2
 _ZN7QwtPlot15setAxisScaleDivEiRK11QwtScaleDiv@Base 6.1.2
 _ZN7QwtPlot16setAxisAutoScaleEib@Base 6.1.2
 _ZN7QwtPlot16setAxisScaleDrawEiP12QwtScaleDraw@Base 6.1.2
 _ZN7QwtPlot16staticMetaObjectE@Base 6.1.2
 _ZN7QwtPlot17legendDataChangedERK8QVariantRK5QListI13QwtLegendDataE@Base 6.1.2
 _ZN7QwtPlot17updateLegendItemsERK8QVariantRK5QListI13QwtLegendDataE@Base 6.1.2
 _ZN7QwtPlot18setAxisScaleEngineEiP14QwtScaleEngine@Base 6.1.2
 _ZN7QwtPlot19setCanvasBackgroundERK6QBrush@Base 6.1.2
 _ZN7QwtPlot19updateCanvasMarginsEv@Base 6.1.2
 _ZN7QwtPlot20setAxisLabelRotationEid@Base 6.1.2
 _ZN7QwtPlot21setAxisLabelAlignmentEi6QFlagsIN2Qt13AlignmentFlagEE@Base 6.1.2
 _ZN7QwtPlot5eventEP6QEvent@Base 6.1.2
 _ZN7QwtPlot6canvasEv@Base 6.1.2
 _ZN7QwtPlot6legendEv@Base 6.1.2
 _ZN7QwtPlot6replotEv@Base 6.1.2
 _ZN7QwtPlot8initPlotERK7QwtText@Base 6.1.2
 _ZN7QwtPlot8setTitleERK7QString@Base 6.1.2
 _ZN7QwtPlot8setTitleERK7QwtText@Base 6.1.2
 _ZN7QwtPlot9axisValidEi@Base 6.1.2
 _ZN7QwtPlot9setCanvasEP7QWidget@Base 6.1.2
 _ZN7QwtPlot9setFooterERK7QString@Base 6.1.2
 _ZN7QwtPlot9setFooterERK7QwtText@Base 6.1.2
 _ZN7QwtPlotC1EP7QWidget@Base 6.1.2
 _ZN7QwtPlotC1ERK7QwtTextP7QWidget@Base 6.1.2
 _ZN7QwtPlotC2EP7QWidget@Base 6.1.2
 _ZN7QwtPlotC2ERK7QwtTextP7QWidget@Base 6.1.2
 _ZN7QwtPlotD0Ev@Base 6.1.2
 _ZN7QwtPlotD1Ev@Base 6.1.2
 _ZN7QwtPlotD2Ev@Base 6.1.2
 _ZN7QwtText10textEngineENS_10TextFormatE@Base 6.1.2
 _ZN7QwtText10textEngineERK7QStringNS_10TextFormatE@Base 6.1.2
 _ZN7QwtText12setBorderPenERK4QPen@Base 6.1.2
 _ZN7QwtText13setTextEngineENS_10TextFormatEP13QwtTextEngine@Base 6.1.2
 _ZN7QwtText14setRenderFlagsEi@Base 6.1.2
 _ZN7QwtText15setBorderRadiusEd@Base 6.1.2
 _ZN7QwtText17setPaintAttributeENS_14PaintAttributeEb@Base 6.1.2
 _ZN7QwtText18setBackgroundBrushERK6QBrush@Base 6.1.2
 _ZN7QwtText18setLayoutAttributeENS_15LayoutAttributeEb@Base 6.1.2
 _ZN7QwtText7setFontERK5QFont@Base 6.1.2
 _ZN7QwtText7setTextERK7QStringNS_10TextFormatE@Base 6.1.2
 _ZN7QwtText8setColorERK6QColor@Base 6.1.2
 _ZN7QwtTextC1ERK7QStringNS_10TextFormatE@Base 6.1.2
 _ZN7QwtTextC1ERKS_@Base 6.1.2
 _ZN7QwtTextC2ERK7QStringNS_10TextFormatE@Base 6.1.2
 _ZN7QwtTextC2ERKS_@Base 6.1.2
 _ZN7QwtTextD1Ev@Base 6.1.2
 _ZN7QwtTextD2Ev@Base 6.1.2
 _ZN7QwtTextaSERKS_@Base 6.1.2
 (optional=templinst)_ZN8QMapDataI7QStringiE7destroyEv@Base 6.1.2
 (optional=templinst)_ZN8QMapDataIPK11QwtPlotItem5QListIP19QwtLegendLayoutItemEE7destroyEv@Base 6.1.2
 (optional=templinst)_ZN8QMapDataId7QStringE7destroyEv@Base 6.1.2
 (optional=templinst)_ZN8QMapDataId7QwtTextE7destroyEv@Base 6.1.2
 (optional=templinst)_ZN8QMapDataId9QPolygonFE10createNodeERKdRKS0_P8QMapNodeIdS0_Eb@Base 6.1.4
 (optional=templinst)_ZN8QMapDataId9QPolygonFE7destroyEv@Base 6.1.2
 (optional=templinst)_ZN8QMapDataIi8QVariantE7destroyEv@Base 6.1.2
 (optional=templinst)_ZN8QMapNodeI7QStringiE14destroySubTreeEv@Base 6.1.2
 (optional=templinst)_ZN8QMapNodeIPK11QwtPlotItem5QListIP19QwtLegendLayoutItemEE14destroySubTreeEv@Base 6.1.2
 (optional=templinst)_ZN8QMapNodeId7QStringE14destroySubTreeEv@Base 6.1.2
 (optional=templinst)_ZN8QMapNodeId7QwtTextE14destroySubTreeEv@Base 6.1.2
 (optional=templinst)_ZN8QMapNodeId9QPolygonFE14destroySubTreeEv@Base 6.1.2
 (optional=templinst)_ZN8QMapNodeIi8QVariantE14destroySubTreeEv@Base 6.1.2
 (optional=templinst)_ZN8QVariant8setValueI10QwtGraphicEEvRKT_@Base 6.1.4
 _ZN8QwtWheel10paintEventEP11QPaintEvent@Base 6.1.2
 _ZN8QwtWheel10setMaximumEd@Base 6.1.2
 _ZN8QwtWheel10setMinimumEd@Base 6.1.2
 _ZN8QwtWheel10stopFlyingEv@Base 6.1.2
 _ZN8QwtWheel10timerEventEP11QTimerEvent@Base 6.1.2
 _ZN8QwtWheel10wheelEventEP11QWheelEvent@Base 6.1.2
 _ZN8QwtWheel10wheelMovedEd@Base 6.1.2
 _ZN8QwtWheel11qt_metacallEN11QMetaObject4CallEiPPv@Base 6.1.2
 _ZN8QwtWheel11qt_metacastEPKc@Base 6.1.2
 _ZN8QwtWheel11setInvertedEb@Base 6.1.2
 _ZN8QwtWheel11setTrackingEb@Base 6.1.2
 _ZN8QwtWheel11setWrappingEb@Base 6.1.2
 _ZN8QwtWheel12setTickCountEi@Base 6.1.2
 _ZN8QwtWheel12setViewAngleEd@Base 6.1.2
 _ZN8QwtWheel12valueChangedEd@Base 6.1.2
 _ZN8QwtWheel12wheelPressedEv@Base 6.1.2
 _ZN8QwtWheel13keyPressEventEP9QKeyEvent@Base 6.1.2
 _ZN8QwtWheel13setSingleStepEd@Base 6.1.2
 _ZN8QwtWheel13setTotalAngleEd@Base 6.1.2
 _ZN8QwtWheel13setWheelWidthEi@Base 6.1.2
 _ZN8QwtWheel13wheelReleasedEv@Base 6.1.2
 _ZN8QwtWheel14mouseMoveEventEP11QMouseEvent@Base 6.1.2
 _ZN8QwtWheel14setBorderWidthEi@Base 6.1.2
 _ZN8QwtWheel14setOrientationEN2Qt11OrientationE@Base 6.1.2
 _ZN8QwtWheel15mousePressEventEP11QMouseEvent@Base 6.1.2
 _ZN8QwtWheel16setPageStepCountEi@Base 6.1.2
 _ZN8QwtWheel16setStepAlignmentEb@Base 6.1.2
 _ZN8QwtWheel16staticMetaObjectE@Base 6.1.2
 _ZN8QwtWheel17mouseReleaseEventEP11QMouseEvent@Base 6.1.2
 _ZN8QwtWheel17setUpdateIntervalEi@Base 6.1.2
 _ZN8QwtWheel19drawWheelBackgroundEP8QPainterRK6QRectF@Base 6.1.2
 _ZN8QwtWheel19setWheelBorderWidthEi@Base 6.1.2
 _ZN8QwtWheel7setMassEd@Base 6.1.2
 _ZN8QwtWheel8setRangeEdd@Base 6.1.2
 _ZN8QwtWheel8setValueEd@Base 6.1.2
 _ZN8QwtWheel9drawTicksEP8QPainterRK6QRectF@Base 6.1.2
 _ZN8QwtWheelC1EP7QWidget@Base 6.1.2
 _ZN8QwtWheelC2EP7QWidget@Base 6.1.2
 _ZN8QwtWheelD0Ev@Base 6.1.2
 _ZN8QwtWheelD1Ev@Base 6.1.2
 _ZN8QwtWheelD2Ev@Base 6.1.2
 (optional=templinst)_ZN9QtPrivate16ConverterFunctorI7QVectorI7QPointFEN17QtMetaTypePrivate23QSequentialIterableImplENS4_33QSequentialIterableConvertFunctorIS3_EEE7convertEPKNS_25AbstractConverterFunctionEPKvPv@Base 6.1.2
 (optional=templinst)_ZN9QtPrivate16ConverterFunctorI7QVectorI7QPointFEN17QtMetaTypePrivate23QSequentialIterableImplENS4_33QSequentialIterableConvertFunctorIS3_EEED1Ev@Base 6.1.2
 (optional=templinst)_ZN9QtPrivate16ConverterFunctorI7QVectorI7QPointFEN17QtMetaTypePrivate23QSequentialIterableImplENS4_33QSequentialIterableConvertFunctorIS3_EEED2Ev@Base 6.1.2
 (optional=templinst)_ZN9QtPrivate19QVariantValueHelperI7QwtTextE8metaTypeERK8QVariant@Base 6.1.4
 (optional=templinst)_ZN9QtPrivate7indexOfIP7QWidgetS2_EEiRK5QListIT_ERKT0_i@Base 6.1.4
 _ZN9QwtLegend11PrivateData10LegendView13viewportEventEP6QEvent@Base 6.1.2
 _ZN9QwtLegend11PrivateData10LegendView14layoutContentsEv@Base 6.1.4
 _ZN9QwtLegend11PrivateData10LegendView5eventEP6QEvent@Base 6.1.2
 _ZN9QwtLegend11PrivateData10LegendViewC1EP7QWidget@Base 6.1.4
 _ZN9QwtLegend11PrivateData10LegendViewC2EP7QWidget@Base 6.1.4
 _ZN9QwtLegend11PrivateData10LegendViewD0Ev@Base 6.1.2
 _ZN9QwtLegend11PrivateData10LegendViewD1Ev@Base 6.1.2
 _ZN9QwtLegend11PrivateData10LegendViewD2Ev@Base 6.1.2
 _ZN9QwtLegend11eventFilterEP7QObjectP6QEvent@Base 6.1.2
 _ZN9QwtLegend11itemCheckedEb@Base 6.1.2
 _ZN9QwtLegend11itemClickedEv@Base 6.1.2
 _ZN9QwtLegend11qt_metacallEN11QMetaObject4CallEiPPv@Base 6.1.2
 _ZN9QwtLegend11qt_metacastEPKc@Base 6.1.2
 _ZN9QwtLegend12updateLegendERK8QVariantRK5QListI13QwtLegendDataE@Base 6.1.2
 _ZN9QwtLegend12updateWidgetEP7QWidgetRK13QwtLegendData@Base 6.1.2
 _ZN9QwtLegend13setMaxColumnsEj@Base 6.1.2
 _ZN9QwtLegend14contentsWidgetEv@Base 6.1.2
 _ZN9QwtLegend14updateTabOrderEv@Base 6.1.2
 _ZN9QwtLegend16staticMetaObjectE@Base 6.1.2
 _ZN9QwtLegend18setDefaultItemModeEN13QwtLegendData4ModeE@Base 6.1.2
 _ZN9QwtLegend7checkedERK8QVariantbi@Base 6.1.2
 _ZN9QwtLegend7clickedERK8QVarianti@Base 6.1.2
 _ZN9QwtLegendC1EP7QWidget@Base 6.1.2
 _ZN9QwtLegendC2EP7QWidget@Base 6.1.2
 _ZN9QwtLegendD0Ev@Base 6.1.2
 _ZN9QwtLegendD1Ev@Base 6.1.2
 _ZN9QwtLegendD2Ev@Base 6.1.2
 _ZN9QwtPanner10paintEventEP11QPaintEvent@Base 6.1.2
 _ZN9QwtPanner10setEnabledEb@Base 6.1.2
 _ZN9QwtPanner10showCursorEb@Base 6.1.2
 _ZN9QwtPanner11eventFilterEP7QObjectP6QEvent@Base 6.1.2
 _ZN9QwtPanner11qt_metacallEN11QMetaObject4CallEiPPv@Base 6.1.2
 _ZN9QwtPanner11qt_metacastEPKc@Base 6.1.2
 _ZN9QwtPanner11setAbortKeyEi6QFlagsIN2Qt16KeyboardModifierEE@Base 6.1.2
 _ZN9QwtPanner14setMouseButtonEN2Qt11MouseButtonE6QFlagsINS0_16KeyboardModifierEE@Base 6.1.2
 _ZN9QwtPanner15setOrientationsE6QFlagsIN2Qt11OrientationEE@Base 6.1.2
 _ZN9QwtPanner16staticMetaObjectE@Base 6.1.2
 _ZN9QwtPanner19widgetKeyPressEventEP9QKeyEvent@Base 6.1.2
 _ZN9QwtPanner20widgetMouseMoveEventEP11QMouseEvent@Base 6.1.2
 _ZN9QwtPanner21widgetKeyReleaseEventEP9QKeyEvent@Base 6.1.2
 _ZN9QwtPanner21widgetMousePressEventEP11QMouseEvent@Base 6.1.2
 _ZN9QwtPanner23widgetMouseReleaseEventEP11QMouseEvent@Base 6.1.2
 _ZN9QwtPanner5movedEii@Base 6.1.2
 _ZN9QwtPanner6pannedEii@Base 6.1.2
 _ZN9QwtPanner9setCursorERK7QCursor@Base 6.1.2
 _ZN9QwtPannerC1EP7QWidget@Base 6.1.2
 _ZN9QwtPannerC2EP7QWidget@Base 6.1.2
 _ZN9QwtPannerD0Ev@Base 6.1.2
 _ZN9QwtPannerD1Ev@Base 6.1.2
 _ZN9QwtPannerD2Ev@Base 6.1.2
 _ZN9QwtPicker10setEnabledEb@Base 6.1.2
 _ZN9QwtPicker10transitionEPK6QEvent@Base 6.1.2
 _ZN9QwtPicker11eventFilterEP7QObjectP6QEvent@Base 6.1.2
 _ZN9QwtPicker11qt_metacallEN11QMetaObject4CallEiPPv@Base 6.1.2
 _ZN9QwtPicker11qt_metacastEPKc@Base 6.1.2
 _ZN9QwtPicker12parentWidgetEv@Base 6.1.2
 _ZN9QwtPicker12stateMachineEv@Base 6.1.2
 _ZN9QwtPicker13setResizeModeENS_10ResizeModeE@Base 6.1.2
 _ZN9QwtPicker13setRubberBandENS_10RubberBandE@Base 6.1.2
 _ZN9QwtPicker13setTrackerPenERK4QPen@Base 6.1.2
 _ZN9QwtPicker13updateDisplayEv@Base 6.1.2
 _ZN9QwtPicker14setTrackerFontERK5QFont@Base 6.1.2
 _ZN9QwtPicker14setTrackerModeENS_11DisplayModeE@Base 6.1.2
 _ZN9QwtPicker15setStateMachineEP16QwtPickerMachine@Base 6.1.2
 _ZN9QwtPicker16setMouseTrackingEb@Base 6.1.2
 _ZN9QwtPicker16setRubberBandPenERK4QPen@Base 6.1.2
 _ZN9QwtPicker16staticMetaObjectE@Base 6.1.2
 _ZN9QwtPicker16stretchSelectionERK5QSizeS2_@Base 6.1.2
 _ZN9QwtPicker16widgetEnterEventEP6QEvent@Base 6.1.2
 _ZN9QwtPicker16widgetLeaveEventEP6QEvent@Base 6.1.2
 _ZN9QwtPicker16widgetWheelEventEP11QWheelEvent@Base 6.1.2
 _ZN9QwtPicker19widgetKeyPressEventEP9QKeyEvent@Base 6.1.2
 _ZN9QwtPicker20widgetMouseMoveEventEP11QMouseEvent@Base 6.1.2
 _ZN9QwtPicker21widgetKeyReleaseEventEP9QKeyEvent@Base 6.1.2
 _ZN9QwtPicker21widgetMousePressEventEP11QMouseEvent@Base 6.1.2
 _ZN9QwtPicker23widgetMouseReleaseEventEP11QMouseEvent@Base 6.1.2
 _ZN9QwtPicker27widgetMouseDoubleClickEventEP11QMouseEvent@Base 6.1.2
 _ZN9QwtPicker3endEb@Base 6.1.2
 _ZN9QwtPicker4initEP7QWidgetNS_10RubberBandENS_11DisplayModeE@Base 6.1.2
 _ZN9QwtPicker4moveERK6QPoint@Base 6.1.2
 _ZN9QwtPicker5beginEv@Base 6.1.2
 _ZN9QwtPicker5movedERK6QPoint@Base 6.1.2
 _ZN9QwtPicker5resetEv@Base 6.1.2
 _ZN9QwtPicker6appendERK6QPoint@Base 6.1.2
 _ZN9QwtPicker6removeEv@Base 6.1.2
 _ZN9QwtPicker7changedERK8QPolygon@Base 6.1.2
 _ZN9QwtPicker7removedERK6QPoint@Base 6.1.2
 _ZN9QwtPicker8appendedERK6QPoint@Base 6.1.2
 _ZN9QwtPicker8selectedERK8QPolygon@Base 6.1.2
 _ZN9QwtPicker9activatedEb@Base 6.1.2
 _ZN9QwtPickerC1ENS_10RubberBandENS_11DisplayModeEP7QWidget@Base 6.1.2
 _ZN9QwtPickerC1EP7QWidget@Base 6.1.2
 _ZN9QwtPickerC2ENS_10RubberBandENS_11DisplayModeEP7QWidget@Base 6.1.2
 _ZN9QwtPickerC2EP7QWidget@Base 6.1.2
 _ZN9QwtPickerD0Ev@Base 6.1.2
 _ZN9QwtPickerD1Ev@Base 6.1.2
 _ZN9QwtPickerD2Ev@Base 6.1.2
 _ZN9QwtSlider10initSliderEN2Qt11OrientationE@Base 6.1.2
 _ZN9QwtSlider10paintEventEP11QPaintEvent@Base 6.1.2
 _ZN9QwtSlider10setSpacingEi@Base 6.1.2
 _ZN9QwtSlider10timerEventEP11QTimerEvent@Base 6.1.2
 _ZN9QwtSlider11changeEventEP6QEvent@Base 6.1.2
 _ZN9QwtSlider11qt_metacallEN11QMetaObject4CallEiPPv@Base 6.1.2
 _ZN9QwtSlider11qt_metacastEPKc@Base 6.1.2
 _ZN9QwtSlider11resizeEventEP12QResizeEvent@Base 6.1.2
 _ZN9QwtSlider11scaleChangeEv@Base 6.1.2
 _ZN9QwtSlider12layoutSliderEb@Base 6.1.2
 _ZN9QwtSlider12setScaleDrawEP12QwtScaleDraw@Base 6.1.2
 _ZN9QwtSlider13setHandleSizeERK5QSize@Base 6.1.2
 _ZN9QwtSlider14setBorderWidthEi@Base 6.1.2
 _ZN9QwtSlider14setOrientationEN2Qt11OrientationE@Base 6.1.2
 _ZN9QwtSlider15mousePressEventEP11QMouseEvent@Base 6.1.2
 _ZN9QwtSlider16setScalePositionENS_13ScalePositionE@Base 6.1.2
 _ZN9QwtSlider16staticMetaObjectE@Base 6.1.2
 _ZN9QwtSlider17mouseReleaseEventEP11QMouseEvent@Base 6.1.2
 _ZN9QwtSlider17setUpdateIntervalEi@Base 6.1.2
 _ZN9QwtSlider9scaleDrawEv@Base 6.1.2
 _ZN9QwtSlider9setGrooveEb@Base 6.1.2
 _ZN9QwtSlider9setTroughEb@Base 6.1.2
 _ZN9QwtSliderC1EN2Qt11OrientationEP7QWidget@Base 6.1.2
 _ZN9QwtSliderC1EP7QWidget@Base 6.1.2
 _ZN9QwtSliderC2EN2Qt11OrientationEP7QWidget@Base 6.1.2
 _ZN9QwtSliderC2EP7QWidget@Base 6.1.2
 _ZN9QwtSliderD0Ev@Base 6.1.2
 _ZN9QwtSliderD1Ev@Base 6.1.2
 _ZN9QwtSliderD2Ev@Base 6.1.2
 _ZN9QwtSpline13setSplineTypeENS_10SplineTypeE@Base 6.1.2
 _ZN9QwtSpline18buildNaturalSplineERK9QPolygonF@Base 6.1.2
 _ZN9QwtSpline19buildPeriodicSplineERK9QPolygonF@Base 6.1.2
 _ZN9QwtSpline5resetEv@Base 6.1.2
 _ZN9QwtSpline9setPointsERK9QPolygonF@Base 6.1.2
 _ZN9QwtSplineC1ERKS_@Base 6.1.2
 _ZN9QwtSplineC1Ev@Base 6.1.2
 _ZN9QwtSplineC2ERKS_@Base 6.1.2
 _ZN9QwtSplineC2Ev@Base 6.1.2
 _ZN9QwtSplineD1Ev@Base 6.1.2
 _ZN9QwtSplineD2Ev@Base 6.1.2
 _ZN9QwtSplineaSERKS_@Base 6.1.2
 _ZN9QwtSymbol10setGraphicERK10QwtGraphic@Base 6.1.2
 _ZN9QwtSymbol11setPinPointERK7QPointFb@Base 6.1.2
 _ZN9QwtSymbol14setCachePolicyENS_11CachePolicyE@Base 6.1.2
 _ZN9QwtSymbol14setSvgDocumentERK10QByteArray@Base 6.1.2
 _ZN9QwtSymbol15invalidateCacheEv@Base 6.1.2
 _ZN9QwtSymbol18setPinPointEnabledEb@Base 6.1.2
 _ZN9QwtSymbol6setPenERK4QPen@Base 6.1.2
 _ZN9QwtSymbol6setPenERK6QColordN2Qt8PenStyleE@Base 6.1.2
 _ZN9QwtSymbol7setPathERK12QPainterPath@Base 6.1.2
 _ZN9QwtSymbol7setSizeERK5QSize@Base 6.1.2
 _ZN9QwtSymbol7setSizeEii@Base 6.1.2
 _ZN9QwtSymbol8setBrushERK6QBrush@Base 6.1.2
 _ZN9QwtSymbol8setColorERK6QColor@Base 6.1.2
 _ZN9QwtSymbol8setStyleENS_5StyleE@Base 6.1.2
 _ZN9QwtSymbol9setPixmapERK7QPixmap@Base 6.1.2
 _ZN9QwtSymbolC1ENS_5StyleE@Base 6.1.2
 _ZN9QwtSymbolC1ENS_5StyleERK6QBrushRK4QPenRK5QSize@Base 6.1.2
 _ZN9QwtSymbolC1ERK12QPainterPathRK6QBrushRK4QPen@Base 6.1.2
 _ZN9QwtSymbolC2ENS_5StyleE@Base 6.1.2
 _ZN9QwtSymbolC2ENS_5StyleERK6QBrushRK4QPenRK5QSize@Base 6.1.2
 _ZN9QwtSymbolC2ERK12QPainterPathRK6QBrushRK4QPen@Base 6.1.2
 _ZN9QwtSymbolD0Ev@Base 6.1.2
 _ZN9QwtSymbolD1Ev@Base 6.1.2
 _ZN9QwtSymbolD2Ev@Base 6.1.2
 _ZN9QwtThermo10paintEventEP11QPaintEvent@Base 6.1.2
 _ZN9QwtThermo10setSpacingEi@Base 6.1.2
 _ZN9QwtThermo11changeEventEP6QEvent@Base 6.1.2
 _ZN9QwtThermo11qt_metacallEN11QMetaObject4CallEiPPv@Base 6.1.2
 _ZN9QwtThermo11qt_metacastEPKc@Base 6.1.2
 _ZN9QwtThermo11resizeEventEP12QResizeEvent@Base 6.1.2
 _ZN9QwtThermo11scaleChangeEv@Base 6.1.2
 _ZN9QwtThermo11setColorMapEP11QwtColorMap@Base 6.1.2
 _ZN9QwtThermo12layoutThermoEb@Base 6.1.2
 _ZN9QwtThermo12setFillBrushERK6QBrush@Base 6.1.2
 _ZN9QwtThermo12setPipeWidthEi@Base 6.1.2
 _ZN9QwtThermo12setScaleDrawEP12QwtScaleDraw@Base 6.1.2
 _ZN9QwtThermo13setAlarmBrushERK6QBrush@Base 6.1.2
 _ZN9QwtThermo13setAlarmLevelEd@Base 6.1.2
 _ZN9QwtThermo13setOriginModeENS_10OriginModeE@Base 6.1.2
 _ZN9QwtThermo13setRangeFlagsE6QFlagsIN11QwtInterval10BorderFlagEE@Base 6.1.2
 _ZN9QwtThermo14setBorderWidthEi@Base 6.1.2
 _ZN9QwtThermo14setOrientationEN2Qt11OrientationE@Base 6.1.2
 _ZN9QwtThermo15setAlarmEnabledEb@Base 6.1.2
 _ZN9QwtThermo16setScalePositionENS_13ScalePositionE@Base 6.1.2
 _ZN9QwtThermo16staticMetaObjectE@Base 6.1.2
 _ZN9QwtThermo8colorMapEv@Base 6.1.2
 _ZN9QwtThermo8setValueEd@Base 6.1.2
 _ZN9QwtThermo9scaleDrawEv@Base 6.1.2
 _ZN9QwtThermo9setOriginEd@Base 6.1.2
 _ZN9QwtThermoC1EP7QWidget@Base 6.1.2
 _ZN9QwtThermoC2EP7QWidget@Base 6.1.2
 _ZN9QwtThermoD0Ev@Base 6.1.2
 _ZN9QwtThermoD1Ev@Base 6.1.2
 _ZN9QwtThermoD2Ev@Base 6.1.2
 _ZNK10QwtCompass10metaObjectEv@Base 6.1.2
 _ZNK10QwtCompass17drawScaleContentsEP8QPainterRK7QPointFd@Base 6.1.2
 _ZNK10QwtCompass4roseEv@Base 6.1.2
 _ZNK10QwtCompass8drawRoseEP8QPainterRK7QPointFddN8QPalette10ColorGroupE@Base 6.1.2
 _ZNK10QwtCounter10isReadOnlyEv@Base 6.1.2
 _ZNK10QwtCounter10metaObjectEv@Base 6.1.2
 _ZNK10QwtCounter10numButtonsEv@Base 6.1.2
 _ZNK10QwtCounter10singleStepEv@Base 6.1.2
 _ZNK10QwtCounter11stepButton1Ev@Base 6.1.2
 _ZNK10QwtCounter11stepButton2Ev@Base 6.1.2
 _ZNK10QwtCounter11stepButton3Ev@Base 6.1.2
 _ZNK10QwtCounter5valueEv@Base 6.1.2
 _ZNK10QwtCounter7isValidEv@Base 6.1.2
 _ZNK10QwtCounter7maximumEv@Base 6.1.2
 _ZNK10QwtCounter7minimumEv@Base 6.1.2
 _ZNK10QwtCounter8incStepsENS_6ButtonE@Base 6.1.2
 _ZNK10QwtCounter8sizeHintEv@Base 6.1.2
 _ZNK10QwtCounter8wrappingEv@Base 6.1.2
 _ZNK10QwtGraphic11defaultSizeEv@Base 6.1.2
 _ZNK10QwtGraphic11sizeMetricsEv@Base 6.1.2
 _ZNK10QwtGraphic12boundingRectEv@Base 6.1.2
 _ZNK10QwtGraphic14testRenderHintENS_10RenderHintE@Base 6.1.2
 _ZNK10QwtGraphic16controlPointRectEv@Base 6.1.2
 _ZNK10QwtGraphic18scaledBoundingRectEdd@Base 6.1.2
 _ZNK10QwtGraphic6isNullEv@Base 6.1.2
 _ZNK10QwtGraphic6renderEP8QPainter@Base 6.1.2
 _ZNK10QwtGraphic6renderEP8QPainterRK6QRectFN2Qt15AspectRatioModeE@Base 6.1.2
 _ZNK10QwtGraphic6renderEP8QPainterRK6QSizeFN2Qt15AspectRatioModeE@Base 6.1.2
 _ZNK10QwtGraphic6renderEP8QPainterRK7QPointF6QFlagsIN2Qt13AlignmentFlagEE@Base 6.1.2
 _ZNK10QwtGraphic7isEmptyEv@Base 6.1.2
 _ZNK10QwtGraphic7toImageERK5QSizeN2Qt15AspectRatioModeE@Base 6.1.2
 _ZNK10QwtGraphic7toImageEv@Base 6.1.2
 _ZNK10QwtGraphic8commandsEv@Base 6.1.2
 _ZNK10QwtGraphic8toPixmapERK5QSizeN2Qt15AspectRatioModeE@Base 6.1.2
 _ZNK10QwtGraphic8toPixmapEv@Base 6.1.2
 _ZNK11QwtColorMap10colorTableERK11QwtInterval@Base 6.1.2
 _ZNK11QwtInterval10intersectsERKS_@Base 6.1.2
 _ZNK11QwtInterval10normalizedEv@Base 6.1.2
 _ZNK11QwtInterval10symmetrizeEd@Base 6.1.2
 _ZNK11QwtInterval5uniteERKS_@Base 6.1.2
 _ZNK11QwtInterval6extendEd@Base 6.1.2
 _ZNK11QwtInterval7limitedEdd@Base 6.1.2
 _ZNK11QwtInterval8containsEd@Base 6.1.2
 _ZNK11QwtInterval8invertedEv@Base 6.1.2
 _ZNK11QwtInterval9intersectERKS_@Base 6.1.2
 _ZNK11QwtPlotDict10autoDeleteEv@Base 6.1.2
 _ZNK11QwtPlotDict8itemListEi@Base 6.1.2
 _ZNK11QwtPlotDict8itemListEv@Base 6.1.2
 _ZNK11QwtPlotGrid11xMinEnabledEv@Base 6.1.2
 _ZNK11QwtPlotGrid11yMinEnabledEv@Base 6.1.2
 _ZNK11QwtPlotGrid4drawEP8QPainterRK11QwtScaleMapS4_RK6QRectF@Base 6.1.2
 _ZNK11QwtPlotGrid4rttiEv@Base 6.1.2
 _ZNK11QwtPlotGrid8majorPenEv@Base 6.1.2
 _ZNK11QwtPlotGrid8minorPenEv@Base 6.1.2
 _ZNK11QwtPlotGrid8xEnabledEv@Base 6.1.2
 _ZNK11QwtPlotGrid8yEnabledEv@Base 6.1.2
 _ZNK11QwtPlotGrid9drawLinesEP8QPainterRK6QRectFN2Qt11OrientationERK11QwtScaleMapRK5QListIdE@Base 6.1.2
 _ZNK11QwtPlotGrid9xScaleDivEv@Base 6.1.2
 _ZNK11QwtPlotGrid9yScaleDivEv@Base 6.1.2
 _ZNK11QwtPlotItem10legendDataEv@Base 6.1.2
 _ZNK11QwtPlotItem10legendIconEiRK6QSizeF@Base 6.1.2
 _ZNK11QwtPlotItem11defaultIconERK6QBrushRK6QSizeF@Base 6.1.2
 _ZNK11QwtPlotItem12boundingRectEv@Base 6.1.2
 _ZNK11QwtPlotItem14legendIconSizeEv@Base 6.1.2
 _ZNK11QwtPlotItem14testRenderHintENS_10RenderHintE@Base 6.1.2
 _ZNK11QwtPlotItem16testItemInterestENS_12ItemInterestE@Base 6.1.2
 _ZNK11QwtPlotItem17renderThreadCountEv@Base 6.1.2
 _ZNK11QwtPlotItem17testItemAttributeENS_13ItemAttributeE@Base 6.1.2
 _ZNK11QwtPlotItem19getCanvasMarginHintERK11QwtScaleMapS2_RK6QRectFRdS6_S6_S6_@Base 6.1.2
 _ZNK11QwtPlotItem1zEv@Base 6.1.2
 _ZNK11QwtPlotItem4plotEv@Base 6.1.2
 _ZNK11QwtPlotItem4rttiEv@Base 6.1.2
 _ZNK11QwtPlotItem5titleEv@Base 6.1.2
 _ZNK11QwtPlotItem5xAxisEv@Base 6.1.2
 _ZNK11QwtPlotItem5yAxisEv@Base 6.1.2
 _ZNK11QwtPlotItem9isVisibleEv@Base 6.1.2
 _ZNK11QwtPlotItem9paintRectERK11QwtScaleMapS2_@Base 6.1.2
 _ZNK11QwtPlotItem9scaleRectERK11QwtScaleMapS2_@Base 6.1.2
 _ZNK11QwtScaleDiv10lowerBoundEv@Base 6.1.2
 _ZNK11QwtScaleDiv10upperBoundEv@Base 6.1.2
 _ZNK11QwtScaleDiv12isIncreasingEv@Base 6.1.2
 _ZNK11QwtScaleDiv5rangeEv@Base 6.1.2
 _ZNK11QwtScaleDiv5ticksEi@Base 6.1.2
 _ZNK11QwtScaleDiv7boundedEdd@Base 6.1.2
 _ZNK11QwtScaleDiv7isEmptyEv@Base 6.1.2
 _ZNK11QwtScaleDiv8containsEd@Base 6.1.2
 _ZNK11QwtScaleDiv8intervalEv@Base 6.1.2
 _ZNK11QwtScaleDiv8invertedEv@Base 6.1.2
 _ZNK11QwtScaleDiveqERKS_@Base 6.1.2
 _ZNK11QwtScaleDivneERKS_@Base 6.1.2
 _ZNK11QwtScaleMap12invTransformEd@Base 6.1.4
 _ZNK11QwtScaleMap14transformationEv@Base 6.1.2
 _ZNK12QPaintDevice7devTypeEv@Base 6.1.2
 _ZNK12QwtLegendMap13legendWidgetsERK8QVariant@Base 6.1.2
 _ZNK12QwtLegendMap8itemInfoEPK7QWidget@Base 6.1.2
 _ZNK12QwtMagnifier10metaObjectEv@Base 6.1.2
 _ZNK12QwtMagnifier11mouseFactorEv@Base 6.1.2
 _ZNK12QwtMagnifier11wheelFactorEv@Base 6.1.2
 _ZNK12QwtMagnifier12getZoomInKeyERiR6QFlagsIN2Qt16KeyboardModifierEE@Base 6.1.2
 _ZNK12QwtMagnifier12parentWidgetEv@Base 6.1.2
 _ZNK12QwtMagnifier13getZoomOutKeyERiR6QFlagsIN2Qt16KeyboardModifierEE@Base 6.1.2
 _ZNK12QwtMagnifier14getMouseButtonERN2Qt11MouseButtonER6QFlagsINS0_16KeyboardModifierEE@Base 6.1.2
 _ZNK12QwtMagnifier14wheelModifiersEv@Base 6.1.2
 _ZNK12QwtMagnifier9isEnabledEv@Base 6.1.2
 _ZNK12QwtMagnifier9keyFactorEv@Base 6.1.2
 _ZNK12QwtPlotCurve10drawSeriesEP8QPainterRK11QwtScaleMapS4_RK6QRectFii@Base 6.1.2
 _ZNK12QwtPlotCurve10drawSticksEP8QPainterRK11QwtScaleMapS4_RK6QRectFii@Base 6.1.2
 _ZNK12QwtPlotCurve10legendIconEiRK6QSizeF@Base 6.1.2
 _ZNK12QwtPlotCurve11curveFitterEv@Base 6.1.2
 _ZNK12QwtPlotCurve11drawSymbolsEP8QPainterRK9QwtSymbolRK11QwtScaleMapS7_RK6QRectFii@Base 6.1.2
 _ZNK12QwtPlotCurve12closestPointERK6QPointPd@Base 6.1.2
 _ZNK12QwtPlotCurve13closePolylineEP8QPainterRK11QwtScaleMapS4_R9QPolygonF@Base 6.1.2
 _ZNK12QwtPlotCurve18testCurveAttributeENS_14CurveAttributeE@Base 6.1.2
 _ZNK12QwtPlotCurve18testPaintAttributeENS_14PaintAttributeE@Base 6.1.2
 _ZNK12QwtPlotCurve19testLegendAttributeENS_15LegendAttributeE@Base 6.1.2
 _ZNK12QwtPlotCurve3penEv@Base 6.1.2
 _ZNK12QwtPlotCurve4rttiEv@Base 6.1.2
 _ZNK12QwtPlotCurve5brushEv@Base 6.1.2
 _ZNK12QwtPlotCurve5styleEv@Base 6.1.2
 _ZNK12QwtPlotCurve6symbolEv@Base 6.1.2
 _ZNK12QwtPlotCurve8baselineEv@Base 6.1.2
 _ZNK12QwtPlotCurve8drawDotsEP8QPainterRK11QwtScaleMapS4_RK6QRectFii@Base 6.1.2
 _ZNK12QwtPlotCurve9drawCurveEP8QPainteriRK11QwtScaleMapS4_RK6QRectFii@Base 6.1.2
 _ZNK12QwtPlotCurve9drawLinesEP8QPainterRK11QwtScaleMapS4_RK6QRectFii@Base 6.1.2
 _ZNK12QwtPlotCurve9drawStepsEP8QPainterRK11QwtScaleMapS4_RK6QRectFii@Base 6.1.2
 _ZNK12QwtPlotCurve9fillCurveEP8QPainterRK11QwtScaleMapS4_RK6QRectFR9QPolygonF@Base 6.1.2
 _ZNK12QwtScaleDraw11orientationEv@Base 6.1.2
 _ZNK12QwtScaleDraw12drawBackboneEP8QPainter@Base 6.1.2
 _ZNK12QwtScaleDraw12minLabelDistERK5QFont@Base 6.1.2
 _ZNK12QwtScaleDraw13labelPositionEd@Base 6.1.2
 _ZNK12QwtScaleDraw13labelRotationEv@Base 6.1.2
 _ZNK12QwtScaleDraw13maxLabelWidthERK5QFont@Base 6.1.2
 _ZNK12QwtScaleDraw14labelAlignmentEv@Base 6.1.2
 _ZNK12QwtScaleDraw14maxLabelHeightERK5QFont@Base 6.1.2
 _ZNK12QwtScaleDraw17boundingLabelRectERK5QFontd@Base 6.1.2
 _ZNK12QwtScaleDraw17getBorderDistHintERK5QFontRiS3_@Base 6.1.2
 _ZNK12QwtScaleDraw19labelTransformationERK7QPointFRK6QSizeF@Base 6.1.2
 _ZNK12QwtScaleDraw3posEv@Base 6.1.2
 _ZNK12QwtScaleDraw6extentERK5QFont@Base 6.1.2
 _ZNK12QwtScaleDraw6lengthEv@Base 6.1.2
 _ZNK12QwtScaleDraw8drawTickEP8QPainterdd@Base 6.1.2
 _ZNK12QwtScaleDraw9alignmentEv@Base 6.1.2
 _ZNK12QwtScaleDraw9drawLabelEP8QPainterd@Base 6.1.2
 _ZNK12QwtScaleDraw9labelRectERK5QFontd@Base 6.1.2
 _ZNK12QwtScaleDraw9labelSizeERK5QFontd@Base 6.1.2
 _ZNK12QwtScaleDraw9minLengthERK5QFont@Base 6.1.2
 _ZNK12QwtTextLabel10metaObjectEv@Base 6.1.2
 _ZNK12QwtTextLabel13defaultIndentEv@Base 6.1.2
 _ZNK12QwtTextLabel14heightForWidthEi@Base 6.1.2
 _ZNK12QwtTextLabel15minimumSizeHintEv@Base 6.1.2
 _ZNK12QwtTextLabel4textEv@Base 6.1.2
 _ZNK12QwtTextLabel6indentEv@Base 6.1.2
 _ZNK12QwtTextLabel6marginEv@Base 6.1.2
 _ZNK12QwtTextLabel8sizeHintEv@Base 6.1.2
 _ZNK12QwtTextLabel8textRectEv@Base 6.1.2
 _ZNK12QwtTextLabel9plainTextEv@Base 6.1.2
 _ZNK12QwtTransform7boundedEd@Base 6.1.2
 _ZNK13QwtDialNeedle4drawEP8QPainterRK7QPointFddN8QPalette10ColorGroupE@Base 6.1.2
 _ZNK13QwtDialNeedle7paletteEv@Base 6.1.2
 _ZNK13QwtDialNeedle8drawKnobEP8QPainterdRK6QBrushb@Base 6.1.2
 _ZNK13QwtLegendData4iconEv@Base 6.1.2
 _ZNK13QwtLegendData4modeEv@Base 6.1.2
 _ZNK13QwtLegendData5titleEv@Base 6.1.2
 _ZNK13QwtLegendData5valueEi@Base 6.1.2
 _ZNK13QwtLegendData6valuesEv@Base 6.1.2
 _ZNK13QwtLegendData7hasRoleEi@Base 6.1.2
 _ZNK13QwtLegendData7isValidEv@Base 6.1.2
 _ZNK13QwtPlotCanvas10borderPathERK5QRect@Base 6.1.2
 _ZNK13QwtPlotCanvas10metaObjectEv@Base 6.1.2
 _ZNK13QwtPlotCanvas12backingStoreEv@Base 6.1.2
 _ZNK13QwtPlotCanvas12borderRadiusEv@Base 6.1.2
 _ZNK13QwtPlotCanvas14focusIndicatorEv@Base 6.1.2
 _ZNK13QwtPlotCanvas18testPaintAttributeENS_14PaintAttributeE@Base 6.1.2
 _ZNK13QwtPlotCanvas4plotEv@Base 6.1.2
 _ZNK13QwtPlotLayout10canvasRectEv@Base 6.1.2
 _ZNK13QwtPlotLayout10footerRectEv@Base 6.1.2
 _ZNK13QwtPlotLayout10legendRectEv@Base 6.1.2
 _ZNK13QwtPlotLayout11alignLegendERK6QRectFS2_@Base 6.1.2
 _ZNK13QwtPlotLayout11alignScalesE6QFlagsINS_6OptionEER6QRectFPS3_@Base 6.1.2
 _ZNK13QwtPlotLayout11legendRatioEv@Base 6.1.2
 _ZNK13QwtPlotLayout12canvasMarginEi@Base 6.1.2
 _ZNK13QwtPlotLayout12layoutLegendE6QFlagsINS_6OptionEERK6QRectF@Base 6.1.2
 _ZNK13QwtPlotLayout14legendPositionEv@Base 6.1.2
 _ZNK13QwtPlotLayout15minimumSizeHintEPK7QwtPlot@Base 6.1.2
 _ZNK13QwtPlotLayout16expandLineBreaksE6QFlagsINS_6OptionEERK6QRectFRiS6_Pi@Base 6.1.2
 _ZNK13QwtPlotLayout18alignCanvasToScaleEi@Base 6.1.2
 _ZNK13QwtPlotLayout7spacingEv@Base 6.1.2
 _ZNK13QwtPlotLayout9scaleRectEi@Base 6.1.2
 _ZNK13QwtPlotLayout9titleRectEv@Base 6.1.2
 _ZNK13QwtPlotMarker10legendIconEiRK6QSizeF@Base 6.1.2
 _ZNK13QwtPlotMarker12boundingRectEv@Base 6.1.2
 _ZNK13QwtPlotMarker14labelAlignmentEv@Base 6.1.2
 _ZNK13QwtPlotMarker16labelOrientationEv@Base 6.1.2
 _ZNK13QwtPlotMarker4drawEP8QPainterRK11QwtScaleMapS4_RK6QRectF@Base 6.1.2
 _ZNK13QwtPlotMarker4rttiEv@Base 6.1.2
 _ZNK13QwtPlotMarker5labelEv@Base 6.1.2
 _ZNK13QwtPlotMarker5valueEv@Base 6.1.2
 _ZNK13QwtPlotMarker6symbolEv@Base 6.1.2
 _ZNK13QwtPlotMarker6xValueEv@Base 6.1.2
 _ZNK13QwtPlotMarker6yValueEv@Base 6.1.2
 _ZNK13QwtPlotMarker7linePenEv@Base 6.1.2
 _ZNK13QwtPlotMarker7spacingEv@Base 6.1.2
 _ZNK13QwtPlotMarker9drawLabelEP8QPainterRK6QRectFRK7QPointF@Base 6.1.2
 _ZNK13QwtPlotMarker9drawLinesEP8QPainterRK6QRectFRK7QPointF@Base 6.1.2
 _ZNK13QwtPlotMarker9lineStyleEv@Base 6.1.2
 _ZNK13QwtPlotPanner10metaObjectEv@Base 6.1.2
 _ZNK13QwtPlotPanner12contentsMaskEv@Base 6.1.2
 _ZNK13QwtPlotPanner13isAxisEnabledEi@Base 6.1.2
 _ZNK13QwtPlotPanner4grabEv@Base 6.1.2
 _ZNK13QwtPlotPanner4plotEv@Base 6.1.2
 _ZNK13QwtPlotPanner6canvasEv@Base 6.1.2
 _ZNK13QwtPlotPicker10metaObjectEv@Base 6.1.2
 _ZNK13QwtPlotPicker11trackerTextERK6QPoint@Base 6.1.2
 _ZNK13QwtPlotPicker12invTransformERK5QRect@Base 6.1.2
 _ZNK13QwtPlotPicker12invTransformERK6QPoint@Base 6.1.2
 _ZNK13QwtPlotPicker12trackerTextFERK7QPointF@Base 6.1.2
 _ZNK13QwtPlotPicker4plotEv@Base 6.1.2
 _ZNK13QwtPlotPicker5xAxisEv@Base 6.1.2
 _ZNK13QwtPlotPicker5yAxisEv@Base 6.1.2
 _ZNK13QwtPlotPicker6canvasEv@Base 6.1.2
 _ZNK13QwtPlotPicker9scaleRectEv@Base 6.1.2
 _ZNK13QwtPlotPicker9transformERK6QRectF@Base 6.1.2
 _ZNK13QwtPlotPicker9transformERK7QPointF@Base 6.1.2
 _ZNK13QwtPlotZoomer10metaObjectEv@Base 6.1.2
 _ZNK13QwtPlotZoomer11minZoomSizeEv@Base 6.1.2
 _ZNK13QwtPlotZoomer13maxStackDepthEv@Base 6.1.2
 _ZNK13QwtPlotZoomer13zoomRectIndexEv@Base 6.1.2
 _ZNK13QwtPlotZoomer6acceptER8QPolygon@Base 6.1.2
 _ZNK13QwtPlotZoomer8zoomBaseEv@Base 6.1.2
 _ZNK13QwtPlotZoomer8zoomRectEv@Base 6.1.2
 _ZNK13QwtPlotZoomer9zoomStackEv@Base 6.1.2
 _ZNK13QwtPointPolar10normalizedEv@Base 6.1.2
 _ZNK13QwtPointPolar7toPointEv@Base 6.1.2
 _ZNK13QwtPointPolareqERKS_@Base 6.1.2
 _ZNK13QwtPointPolarneERKS_@Base 6.1.2
 _ZNK13QwtRasterData12ContourPlane9intersectEPK10QwtPoint3DP7QPointFb@Base 6.1.4
 _ZNK13QwtRasterData12contourLinesERK6QRectFRK5QSizeRK5QListIdE6QFlagsINS_10ConrecFlagEE@Base 6.1.2
 _ZNK13QwtRasterData9pixelHintERK6QRectF@Base 6.1.2
 _ZNK14QwtAnalogClock10drawNeedleEP8QPainterRK7QPointFddN8QPalette10ColorGroupE@Base 6.1.2
 _ZNK14QwtAnalogClock10metaObjectEv@Base 6.1.2
 _ZNK14QwtAnalogClock4handENS_4HandE@Base 6.1.2
 _ZNK14QwtAnalogClock8drawHandEP8QPainterNS_4HandERK7QPointFddN8QPalette10ColorGroupE@Base 6.1.2
 _ZNK14QwtArrowButton15minimumSizeHintEv@Base 6.1.2
 _ZNK14QwtArrowButton3numEv@Base 6.1.2
 _ZNK14QwtArrowButton8sizeHintEv@Base 6.1.2
 _ZNK14QwtArrowButton9arrowSizeEN2Qt9ArrowTypeERK5QSize@Base 6.1.2
 _ZNK14QwtArrowButton9arrowTypeEv@Base 6.1.2
 _ZNK14QwtArrowButton9drawArrowEP8QPainterRK5QRectN2Qt9ArrowTypeE@Base 6.1.2
 _ZNK14QwtArrowButton9labelRectEv@Base 6.1.2
 _ZNK14QwtLegendLabel10metaObjectEv@Base 6.1.2
 _ZNK14QwtLegendLabel4dataEv@Base 6.1.2
 _ZNK14QwtLegendLabel4iconEv@Base 6.1.2
 _ZNK14QwtLegendLabel6isDownEv@Base 6.1.2
 _ZNK14QwtLegendLabel7spacingEv@Base 6.1.2
 _ZNK14QwtLegendLabel8itemModeEv@Base 6.1.2
 _ZNK14QwtLegendLabel8sizeHintEv@Base 6.1.2
 _ZNK14QwtLegendLabel9isCheckedEv@Base 6.1.2
 _ZNK14QwtPixelMatrix4rectEv@Base 6.1.2
 _ZNK14QwtPlotSvgItem12boundingRectEv@Base 6.1.2
 _ZNK14QwtPlotSvgItem4drawEP8QPainterRK11QwtScaleMapS4_RK6QRectF@Base 6.1.2
 _ZNK14QwtPlotSvgItem4rttiEv@Base 6.1.2
 _ZNK14QwtPlotSvgItem6renderEP8QPainterRK6QRectFS4_@Base 6.1.2
 _ZNK14QwtPlotSvgItem7viewBoxERK6QRectF@Base 6.1.2
 _ZNK14QwtPlotSvgItem8rendererEv@Base 6.1.2
 _ZNK14QwtPointMapper10toPolygonFERK11QwtScaleMapS2_PK13QwtSeriesDataI7QPointFEii@Base 6.1.2
 _ZNK14QwtPointMapper12boundingRectEv@Base 6.1.2
 _ZNK14QwtPointMapper5flagsEv@Base 6.1.2
 _ZNK14QwtPointMapper7toImageERK11QwtScaleMapS2_PK13QwtSeriesDataI7QPointFEiiRK4QPenbj@Base 6.1.2
 _ZNK14QwtPointMapper8testFlagENS_18TransformationFlagE@Base 6.1.2
 _ZNK14QwtPointMapper8toPointsERK11QwtScaleMapS2_PK13QwtSeriesDataI7QPointFEii@Base 6.1.2
 _ZNK14QwtPointMapper9toPointsFERK11QwtScaleMapS2_PK13QwtSeriesDataI7QPointFEii@Base 6.1.2
 _ZNK14QwtPointMapper9toPolygonERK11QwtScaleMapS2_PK13QwtSeriesDataI7QPointFEii@Base 6.1.2
 _ZNK14QwtScaleEngine10attributesEv@Base 6.1.2
 _ZNK14QwtScaleEngine11lowerMarginEv@Base 6.1.2
 _ZNK14QwtScaleEngine11upperMarginEv@Base 6.1.2
 _ZNK14QwtScaleEngine13buildIntervalEd@Base 6.1.2
 _ZNK14QwtScaleEngine13testAttributeENS_9AttributeE@Base 6.1.2
 _ZNK14QwtScaleEngine14divideIntervalEdi@Base 6.1.2
 _ZNK14QwtScaleEngine14transformationEv@Base 6.1.2
 _ZNK14QwtScaleEngine4baseEv@Base 6.1.2
 _ZNK14QwtScaleEngine5stripERK5QListIdERK11QwtInterval@Base 6.1.2
 _ZNK14QwtScaleEngine8containsERK11QwtIntervald@Base 6.1.2
 _ZNK14QwtScaleEngine9referenceEv@Base 6.1.2
 _ZNK14QwtScaleWidget10metaObjectEv@Base 6.1.2
 _ZNK14QwtScaleWidget12colorBarRectERK6QRectF@Base 6.1.2
 _ZNK14QwtScaleWidget12dimForLengthEiRK5QFont@Base 6.1.2
 _ZNK14QwtScaleWidget12drawColorBarEP8QPainterRK6QRectF@Base 6.1.2
 _ZNK14QwtScaleWidget13colorBarWidthEv@Base 6.1.2
 _ZNK14QwtScaleWidget13endBorderDistEv@Base 6.1.2
 _ZNK14QwtScaleWidget14testLayoutFlagENS_10LayoutFlagE@Base 6.1.2
 _ZNK14QwtScaleWidget15minimumSizeHintEv@Base 6.1.2
 _ZNK14QwtScaleWidget15startBorderDistEv@Base 6.1.2
 _ZNK14QwtScaleWidget16colorBarIntervalEv@Base 6.1.2
 _ZNK14QwtScaleWidget16getMinBorderDistERiS0_@Base 6.1.2
 _ZNK14QwtScaleWidget17getBorderDistHintERiS0_@Base 6.1.2
 _ZNK14QwtScaleWidget17isColorBarEnabledEv@Base 6.1.2
 _ZNK14QwtScaleWidget19titleHeightForWidthEi@Base 6.1.2
 _ZNK14QwtScaleWidget4drawEP8QPainter@Base 6.1.2
 _ZNK14QwtScaleWidget5titleEv@Base 6.1.2
 _ZNK14QwtScaleWidget6marginEv@Base 6.1.2
 _ZNK14QwtScaleWidget7spacingEv@Base 6.1.2
 _ZNK14QwtScaleWidget8colorMapEv@Base 6.1.2
 _ZNK14QwtScaleWidget8sizeHintEv@Base 6.1.2
 _ZNK14QwtScaleWidget9alignmentEv@Base 6.1.2
 _ZNK14QwtScaleWidget9drawTitleEP8QPainterN12QwtScaleDraw9AlignmentERK6QRectF@Base 6.1.2
 _ZNK14QwtScaleWidget9scaleDrawEv@Base 6.1.2
 (optional=templinst)_ZNK14QwtSeriesStoreI10QwtPoint3DE8dataRectEv@Base 6.1.2
 (optional=templinst)_ZNK14QwtSeriesStoreI10QwtPoint3DE8dataSizeEv@Base 6.1.2
 (optional=templinst)_ZNK14QwtSeriesStoreI12QwtSetSampleE8dataRectEv@Base 6.1.2
 (optional=templinst)_ZNK14QwtSeriesStoreI12QwtSetSampleE8dataSizeEv@Base 6.1.2
 (optional=templinst)_ZNK14QwtSeriesStoreI13QwtOHLCSampleE8dataRectEv@Base 6.1.2
 (optional=templinst)_ZNK14QwtSeriesStoreI13QwtOHLCSampleE8dataSizeEv@Base 6.1.2
 (optional=templinst)_ZNK14QwtSeriesStoreI17QwtIntervalSampleE8dataRectEv@Base 6.1.2
 (optional=templinst)_ZNK14QwtSeriesStoreI17QwtIntervalSampleE8dataSizeEv@Base 6.1.2
 (optional=templinst)_ZNK14QwtSeriesStoreI7QPointFE8dataRectEv@Base 6.1.2
 (optional=templinst)_ZNK14QwtSeriesStoreI7QPointFE8dataSizeEv@Base 6.1.2
 _ZNK14QwtSystemClock6isNullEv@Base 6.1.2
 _ZNK14QwtSystemClock7elapsedEv@Base 6.1.2
 _ZNK15QwtCPointerData12boundingRectEv@Base 6.1.2
 _ZNK15QwtCPointerData4sizeEv@Base 6.1.2
 _ZNK15QwtCPointerData5xDataEv@Base 6.1.2
 _ZNK15QwtCPointerData5yDataEv@Base 6.1.2
 (subst)_ZNK15QwtCPointerData6sampleE{size_t}@Base 6.1.2
 _ZNK15QwtColumnSymbol10frameStyleEv@Base 6.1.2
 _ZNK15QwtColumnSymbol4drawEP8QPainterRK13QwtColumnRect@Base 6.1.2
 _ZNK15QwtColumnSymbol5styleEv@Base 6.1.2
 _ZNK15QwtColumnSymbol7drawBoxEP8QPainterRK13QwtColumnRect@Base 6.1.2
 _ZNK15QwtColumnSymbol7paletteEv@Base 6.1.2
 _ZNK15QwtColumnSymbol9lineWidthEv@Base 6.1.2
 _ZNK15QwtEventPattern10keyPatternEv@Base 6.1.2
 _ZNK15QwtEventPattern10mouseMatchENS_16MousePatternCodeEPK11QMouseEvent@Base 6.1.2
 _ZNK15QwtEventPattern10mouseMatchERKNS_12MousePatternEPK11QMouseEvent@Base 6.1.2
 _ZNK15QwtEventPattern12mousePatternEv@Base 6.1.2
 _ZNK15QwtEventPattern8keyMatchENS_14KeyPatternCodeEPK9QKeyEvent@Base 6.1.2
 _ZNK15QwtEventPattern8keyMatchERKNS_10KeyPatternEPK9QKeyEvent@Base 6.1.2
 _ZNK15QwtLogTransform12invTransformEd@Base 6.1.2
 _ZNK15QwtLogTransform4copyEv@Base 6.1.2
 _ZNK15QwtLogTransform7boundedEd@Base 6.1.2
 _ZNK15QwtLogTransform9transformEd@Base 6.1.2
 _ZNK15QwtPlotBarChart10drawSampleEP8QPainterRK11QwtScaleMapS4_RK6QRectFRK11QwtIntervaliRK7QPointF@Base 6.1.2
 _ZNK15QwtPlotBarChart10drawSeriesEP8QPainterRK11QwtScaleMapS4_RK6QRectFii@Base 6.1.2
 _ZNK15QwtPlotBarChart10legendDataEv@Base 6.1.2
 _ZNK15QwtPlotBarChart10legendIconEiRK6QSizeF@Base 6.1.2
 _ZNK15QwtPlotBarChart10legendModeEv@Base 6.1.2
 _ZNK15QwtPlotBarChart12boundingRectEv@Base 6.1.2
 _ZNK15QwtPlotBarChart13specialSymbolEiRK7QPointF@Base 6.1.2
 _ZNK15QwtPlotBarChart4rttiEv@Base 6.1.2
 _ZNK15QwtPlotBarChart6symbolEv@Base 6.1.2
 _ZNK15QwtPlotBarChart7drawBarEP8QPainteriRK7QPointFRK13QwtColumnRect@Base 6.1.2
 _ZNK15QwtPlotBarChart8barTitleEi@Base 6.1.2
 _ZNK15QwtPlotGLCanvas10borderPathERK5QRect@Base 6.1.2
 _ZNK15QwtPlotGLCanvas10frameShapeEv@Base 6.1.2
 _ZNK15QwtPlotGLCanvas10frameStyleEv@Base 6.1.2
 _ZNK15QwtPlotGLCanvas10frameWidthEv@Base 6.1.2
 _ZNK15QwtPlotGLCanvas10metaObjectEv@Base 6.1.2
 _ZNK15QwtPlotGLCanvas11frameShadowEv@Base 6.1.2
 _ZNK15QwtPlotGLCanvas12midLineWidthEv@Base 6.1.2
 _ZNK15QwtPlotGLCanvas9frameRectEv@Base 6.1.2
 _ZNK15QwtPlotGLCanvas9lineWidthEv@Base 6.1.2
 _ZNK15QwtPlotRenderer10metaObjectEv@Base 6.1.2
 _ZNK15QwtPlotRenderer11layoutFlagsEv@Base 6.1.2
 _ZNK15QwtPlotRenderer11renderScaleEPK7QwtPlotP8QPainteriiiiRK6QRectF@Base 6.1.2
 _ZNK15QwtPlotRenderer11renderTitleEPK7QwtPlotP8QPainterRK6QRectF@Base 6.1.2
 _ZNK15QwtPlotRenderer12discardFlagsEv@Base 6.1.2
 _ZNK15QwtPlotRenderer12renderCanvasEPK7QwtPlotP8QPainterRK6QRectFPK11QwtScaleMap@Base 6.1.2
 _ZNK15QwtPlotRenderer12renderFooterEPK7QwtPlotP8QPainterRK6QRectF@Base 6.1.2
 _ZNK15QwtPlotRenderer12renderLegendEPK7QwtPlotP8QPainterRK6QRectF@Base 6.1.2
 _ZNK15QwtPlotRenderer14testLayoutFlagENS_10LayoutFlagE@Base 6.1.2
 _ZNK15QwtPlotRenderer15buildCanvasMapsEPK7QwtPlotRK6QRectFP11QwtScaleMap@Base 6.1.2
 _ZNK15QwtPlotRenderer15testDiscardFlagENS_11DiscardFlagE@Base 6.1.2
 _ZNK15QwtPlotRenderer19updateCanvasMarginsEP7QwtPlotRK6QRectFPK11QwtScaleMap@Base 6.1.2
 _ZNK15QwtPlotRenderer6renderEP7QwtPlotP8QPainterRK6QRectF@Base 6.1.2
 _ZNK15QwtPlotRenderer8renderToEP7QwtPlotR12QPaintDevice@Base 6.1.2
 _ZNK15QwtPlotRenderer8renderToEP7QwtPlotR13QSvgGenerator@Base 6.1.2
 _ZNK15QwtPlotRenderer8renderToEP7QwtPlotR8QPrinter@Base 6.1.2
 _ZNK15QwtPlotRescaler11aspectRatioEi@Base 6.1.2
 _ZNK15QwtPlotRescaler11expandScaleEiRK5QSizeS2_@Base 6.1.2
 _ZNK15QwtPlotRescaler11orientationEi@Base 6.1.2
 _ZNK15QwtPlotRescaler12intervalHintEi@Base 6.1.2
 _ZNK15QwtPlotRescaler12updateScalesEP11QwtInterval@Base 6.1.2
 _ZNK15QwtPlotRescaler13referenceAxisEv@Base 6.1.2
 _ZNK15QwtPlotRescaler13rescalePolicyEv@Base 6.1.2
 _ZNK15QwtPlotRescaler14expandIntervalERK11QwtIntervaldNS_18ExpandingDirectionE@Base 6.1.2
 _ZNK15QwtPlotRescaler18expandingDirectionEi@Base 6.1.2
 _ZNK15QwtPlotRescaler4plotEv@Base 6.1.2
 _ZNK15QwtPlotRescaler6canvasEv@Base 6.1.2
 _ZNK15QwtPlotRescaler7rescaleERK5QSizeS2_@Base 6.1.2
 _ZNK15QwtPlotRescaler7rescaleEv@Base 6.1.2
 _ZNK15QwtPlotRescaler8intervalEi@Base 6.1.2
 _ZNK15QwtPlotRescaler9isEnabledEv@Base 6.1.2
 _ZNK15QwtPlotRescaler9pixelDistEiRK5QSize@Base 6.1.2
 _ZNK15QwtPlotRescaler9syncScaleEiRK11QwtIntervalRK5QSize@Base 6.1.2
 _ZNK15QwtPlotZoneItem12boundingRectEv@Base 6.1.2
 _ZNK15QwtPlotZoneItem3penEv@Base 6.1.2
 _ZNK15QwtPlotZoneItem4drawEP8QPainterRK11QwtScaleMapS4_RK6QRectF@Base 6.1.2
 _ZNK15QwtPlotZoneItem4rttiEv@Base 6.1.2
 _ZNK15QwtPlotZoneItem5brushEv@Base 6.1.2
 _ZNK15QwtPlotZoneItem8intervalEv@Base 6.1.2
 _ZNK16QwtAbstractScale10isInvertedEv@Base 6.1.2
 _ZNK16QwtAbstractScale10lowerBoundEv@Base 6.1.2
 _ZNK16QwtAbstractScale10metaObjectEv@Base 6.1.2
 _ZNK16QwtAbstractScale10upperBoundEv@Base 6.1.2
 _ZNK16QwtAbstractScale11scaleEngineEv@Base 6.1.2
 _ZNK16QwtAbstractScale12invTransformEi@Base 6.1.2
 _ZNK16QwtAbstractScale13scaleMaxMajorEv@Base 6.1.2
 _ZNK16QwtAbstractScale13scaleMaxMinorEv@Base 6.1.2
 _ZNK16QwtAbstractScale13scaleStepSizeEv@Base 6.1.2
 _ZNK16QwtAbstractScale17abstractScaleDrawEv@Base 6.1.2
 _ZNK16QwtAbstractScale7maximumEv@Base 6.1.2
 _ZNK16QwtAbstractScale7minimumEv@Base 6.1.2
 _ZNK16QwtAbstractScale8scaleDivEv@Base 6.1.2
 _ZNK16QwtAbstractScale8scaleMapEv@Base 6.1.2
 _ZNK16QwtAbstractScale9transformEd@Base 6.1.2
 _ZNK16QwtAlphaColorMap10colorIndexERK11QwtIntervald@Base 6.1.2
 _ZNK16QwtAlphaColorMap3rgbERK11QwtIntervald@Base 6.1.2
 _ZNK16QwtAlphaColorMap5colorEv@Base 6.1.2
 _ZNK16QwtCircleClipper10clipCircleERK7QPointFd@Base 6.1.2
 _ZNK16QwtCircleClipper13cuttingPointsENS_4EdgeERK7QPointFd@Base 6.1.2
 _ZNK16QwtCircleClipper7toAngleERK7QPointFS2_@Base 6.1.2
 _ZNK16QwtDateScaleDraw10dateFormatEN7QwtDate12IntervalTypeE@Base 6.1.2
 _ZNK16QwtDateScaleDraw10toDateTimeEd@Base 6.1.2
 _ZNK16QwtDateScaleDraw12intervalTypeERK11QwtScaleDiv@Base 6.1.2
 _ZNK16QwtDateScaleDraw16dateFormatOfDateERK9QDateTimeN7QwtDate12IntervalTypeE@Base 6.1.2
 _ZNK16QwtDateScaleDraw5labelEd@Base 6.1.2
 _ZNK16QwtDateScaleDraw8timeSpecEv@Base 6.1.2
 _ZNK16QwtDateScaleDraw9utcOffsetEv@Base 6.1.2
 _ZNK16QwtDateScaleDraw9week0TypeEv@Base 6.1.2
 _ZNK16QwtDynGridLayout10layoutGridEjR7QVectorIiES2_@Base 6.1.2
 _ZNK16QwtDynGridLayout10maxColumnsEv@Base 6.1.2
 _ZNK16QwtDynGridLayout10metaObjectEv@Base 6.1.2
 _ZNK16QwtDynGridLayout10numColumnsEv@Base 6.1.2
 _ZNK16QwtDynGridLayout11layoutItemsERK5QRectj@Base 6.1.2
 _ZNK16QwtDynGridLayout11maxRowWidthEi@Base 6.1.2
 _ZNK16QwtDynGridLayout11stretchGridERK5QRectjR7QVectorIiES5_@Base 6.1.2
 _ZNK16QwtDynGridLayout12maxItemWidthEv@Base 6.1.2
 _ZNK16QwtDynGridLayout14heightForWidthEi@Base 6.1.2
 _ZNK16QwtDynGridLayout15columnsForWidthEi@Base 6.1.2
 _ZNK16QwtDynGridLayout17hasHeightForWidthEv@Base 6.1.2
 _ZNK16QwtDynGridLayout19expandingDirectionsEv@Base 6.1.2
 _ZNK16QwtDynGridLayout5countEv@Base 6.1.2
 _ZNK16QwtDynGridLayout6itemAtEi@Base 6.1.2
 _ZNK16QwtDynGridLayout7isEmptyEv@Base 6.1.2
 _ZNK16QwtDynGridLayout7numRowsEv@Base 6.1.2
 _ZNK16QwtDynGridLayout8sizeHintEv@Base 6.1.2
 _ZNK16QwtDynGridLayout9itemCountEv@Base 6.1.2
 _ZNK16QwtNullTransform12invTransformEd@Base 6.1.2
 _ZNK16QwtNullTransform4copyEv@Base 6.1.2
 _ZNK16QwtNullTransform9transformEd@Base 6.1.2
 _ZNK16QwtPickerMachine13selectionTypeEv@Base 6.1.2
 _ZNK16QwtPickerMachine5stateEv@Base 6.1.2
 _ZNK16QwtPickerTracker11drawOverlayEP8QPainter@Base 6.1.2
 _ZNK16QwtPickerTracker8maskHintEv@Base 6.1.2
 _ZNK16QwtPlotHistogram10columnRectERK17QwtIntervalSampleRK11QwtScaleMapS5_@Base 6.1.2
 _ZNK16QwtPlotHistogram10drawColumnEP8QPainterRK13QwtColumnRectRK17QwtIntervalSample@Base 6.1.2
 _ZNK16QwtPlotHistogram10drawSeriesEP8QPainterRK11QwtScaleMapS4_RK6QRectFii@Base 6.1.2
 _ZNK16QwtPlotHistogram10legendIconEiRK6QSizeF@Base 6.1.2
 _ZNK16QwtPlotHistogram11drawColumnsEP8QPainterRK11QwtScaleMapS4_ii@Base 6.1.2
 _ZNK16QwtPlotHistogram11drawOutlineEP8QPainterRK11QwtScaleMapS4_ii@Base 6.1.2
 _ZNK16QwtPlotHistogram12boundingRectEv@Base 6.1.2
 _ZNK16QwtPlotHistogram12flushPolygonEP8QPainterdR9QPolygonF@Base 6.1.2
 _ZNK16QwtPlotHistogram3penEv@Base 6.1.2
 _ZNK16QwtPlotHistogram4rttiEv@Base 6.1.2
 _ZNK16QwtPlotHistogram5brushEv@Base 6.1.2
 _ZNK16QwtPlotHistogram5styleEv@Base 6.1.2
 _ZNK16QwtPlotHistogram6symbolEv@Base 6.1.2
 _ZNK16QwtPlotHistogram8baselineEv@Base 6.1.2
 _ZNK16QwtPlotHistogram9drawLinesEP8QPainterRK11QwtScaleMapS4_ii@Base 6.1.2
 _ZNK16QwtPlotMagnifier10metaObjectEv@Base 6.1.2
 _ZNK16QwtPlotMagnifier13isAxisEnabledEi@Base 6.1.2
 _ZNK16QwtPlotMagnifier4plotEv@Base 6.1.2
 _ZNK16QwtPlotMagnifier6canvasEv@Base 6.1.2
 _ZNK16QwtPlotScaleItem11PrivateData13scaleIntervalERK6QRectFRK11QwtScaleMapS6_@Base 6.1.2
 _ZNK16QwtPlotScaleItem14borderDistanceEv@Base 6.1.2
 _ZNK16QwtPlotScaleItem18isScaleDivFromAxisEv@Base 6.1.2
 _ZNK16QwtPlotScaleItem4drawEP8QPainterRK11QwtScaleMapS4_RK6QRectF@Base 6.1.2
 _ZNK16QwtPlotScaleItem4fontEv@Base 6.1.2
 _ZNK16QwtPlotScaleItem4rttiEv@Base 6.1.2
 _ZNK16QwtPlotScaleItem7paletteEv@Base 6.1.2
 _ZNK16QwtPlotScaleItem8positionEv@Base 6.1.2
 _ZNK16QwtPlotScaleItem8scaleDivEv@Base 6.1.2
 _ZNK16QwtPlotScaleItem9scaleDrawEv@Base 6.1.2
 _ZNK16QwtPlotShapeItem10legendIconEiRK6QSizeF@Base 6.1.2
 _ZNK16QwtPlotShapeItem10legendModeEv@Base 6.1.2
 _ZNK16QwtPlotShapeItem12boundingRectEv@Base 6.1.2
 _ZNK16QwtPlotShapeItem15renderToleranceEv@Base 6.1.2
 _ZNK16QwtPlotShapeItem18testPaintAttributeENS_14PaintAttributeE@Base 6.1.2
 _ZNK16QwtPlotShapeItem3penEv@Base 6.1.2
 _ZNK16QwtPlotShapeItem4drawEP8QPainterRK11QwtScaleMapS4_RK6QRectF@Base 6.1.2
 _ZNK16QwtPlotShapeItem4rttiEv@Base 6.1.2
 _ZNK16QwtPlotShapeItem5brushEv@Base 6.1.2
 _ZNK16QwtPlotShapeItem5shapeEv@Base 6.1.2
 _ZNK16QwtPlotTextLabel4drawEP8QPainterRK11QwtScaleMapS4_RK6QRectF@Base 6.1.2
 _ZNK16QwtPlotTextLabel4rttiEv@Base 6.1.2
 _ZNK16QwtPlotTextLabel4textEv@Base 6.1.2
 _ZNK16QwtPlotTextLabel6marginEv@Base 6.1.2
 _ZNK16QwtPlotTextLabel8textRectERK6QRectFRK6QSizeF@Base 6.1.2
 _ZNK16QwtSetSeriesData12boundingRectEv@Base 6.1.2
 _ZNK16QwtWidgetOverlay10renderModeEv@Base 6.1.2
 _ZNK16QwtWidgetOverlay4drawEP8QPainter@Base 6.1.2
 _ZNK16QwtWidgetOverlay8maskHintEv@Base 6.1.2
 _ZNK16QwtWidgetOverlay8maskModeEv@Base 6.1.2
 _ZNK17QwtAbstractLegend10metaObjectEv@Base 6.1.2
 _ZNK17QwtAbstractLegend12scrollExtentEN2Qt11OrientationE@Base 6.1.2
 _ZNK17QwtAbstractSlider10isReadOnlyEv@Base 6.1.2
 _ZNK17QwtAbstractSlider10isTrackingEv@Base 6.1.2
 _ZNK17QwtAbstractSlider10metaObjectEv@Base 6.1.2
 _ZNK17QwtAbstractSlider10totalStepsEv@Base 6.1.2
 _ZNK17QwtAbstractSlider11singleStepsEv@Base 6.1.2
 _ZNK17QwtAbstractSlider12alignedValueEd@Base 6.1.2
 _ZNK17QwtAbstractSlider12boundedValueEd@Base 6.1.2
 _ZNK17QwtAbstractSlider13stepAlignmentEv@Base 6.1.2
 _ZNK17QwtAbstractSlider16incrementedValueEdi@Base 6.1.2
 _ZNK17QwtAbstractSlider16invertedControlsEv@Base 6.1.2
 _ZNK17QwtAbstractSlider5valueEv@Base 6.1.2
 _ZNK17QwtAbstractSlider7isValidEv@Base 6.1.2
 _ZNK17QwtAbstractSlider8wrappingEv@Base 6.1.2
 _ZNK17QwtAbstractSlider9pageStepsEv@Base 6.1.2
 _ZNK17QwtIntervalSymbol3penEv@Base 6.1.2
 _ZNK17QwtIntervalSymbol4drawEP8QPainterN2Qt11OrientationERK7QPointFS6_@Base 6.1.2
 _ZNK17QwtIntervalSymbol5brushEv@Base 6.1.2
 _ZNK17QwtIntervalSymbol5styleEv@Base 6.1.2
 _ZNK17QwtIntervalSymbol5widthEv@Base 6.1.2
 _ZNK17QwtIntervalSymboleqERKS_@Base 6.1.2
 _ZNK17QwtIntervalSymbolneERKS_@Base 6.1.2
 _ZNK17QwtLinearColorMap10ColorStops3rgbENS_4ModeEd@Base 6.1.4
 _ZNK17QwtLinearColorMap10colorIndexERK11QwtIntervald@Base 6.1.2
 _ZNK17QwtLinearColorMap10colorStopsEv@Base 6.1.2
 _ZNK17QwtLinearColorMap3rgbERK11QwtIntervald@Base 6.1.2
 _ZNK17QwtLinearColorMap4modeEv@Base 6.1.2
 _ZNK17QwtLinearColorMap6color1Ev@Base 6.1.2
 _ZNK17QwtLinearColorMap6color2Ev@Base 6.1.2
 _ZNK17QwtLogScaleEngine10buildTicksERK11QwtIntervaldiP5QListIdE@Base 6.1.2
 _ZNK17QwtLogScaleEngine11divideScaleEddiid@Base 6.1.2
 _ZNK17QwtLogScaleEngine15buildMajorTicksERK11QwtIntervald@Base 6.1.2
 _ZNK17QwtLogScaleEngine15buildMinorTicksERK5QListIdEidRS1_S4_@Base 6.1.2
 _ZNK17QwtLogScaleEngine5alignERK11QwtIntervald@Base 6.1.2
 _ZNK17QwtLogScaleEngine9autoScaleEiRdS0_S0_@Base 6.1.2
 _ZNK17QwtPlotLegendItem10itemMarginEv@Base 6.1.2
 _ZNK17QwtPlotLegendItem10maxColumnsEv@Base 6.1.2
 _ZNK17QwtPlotLegendItem11itemSpacingEv@Base 6.1.2
 _ZNK17QwtPlotLegendItem11minimumSizeERK13QwtLegendData@Base 6.1.2
 _ZNK17QwtPlotLegendItem12borderRadiusEv@Base 6.1.2
 _ZNK17QwtPlotLegendItem14backgroundModeEv@Base 6.1.2
 _ZNK17QwtPlotLegendItem14borderDistanceEv@Base 6.1.2
 _ZNK17QwtPlotLegendItem14drawBackgroundEP8QPainterRK6QRectF@Base 6.1.2
 _ZNK17QwtPlotLegendItem14drawLegendDataEP8QPainterPK11QwtPlotItemRK13QwtLegendDataRK6QRectF@Base 6.1.2
 _ZNK17QwtPlotLegendItem14heightForWidthERK13QwtLegendDatai@Base 6.1.2
 _ZNK17QwtPlotLegendItem15backgroundBrushEv@Base 6.1.2
 _ZNK17QwtPlotLegendItem16legendGeometriesEPK11QwtPlotItem@Base 6.1.2
 _ZNK17QwtPlotLegendItem4drawEP8QPainterRK11QwtScaleMapS4_RK6QRectF@Base 6.1.2
 _ZNK17QwtPlotLegendItem4fontEv@Base 6.1.2
 _ZNK17QwtPlotLegendItem4rttiEv@Base 6.1.2
 _ZNK17QwtPlotLegendItem6marginEv@Base 6.1.2
 _ZNK17QwtPlotLegendItem7spacingEv@Base 6.1.2
 _ZNK17QwtPlotLegendItem7textPenEv@Base 6.1.2
 _ZNK17QwtPlotLegendItem8geometryERK6QRectF@Base 6.1.2
 _ZNK17QwtPlotLegendItem9alignmentEv@Base 6.1.2
 _ZNK17QwtPlotLegendItem9borderPenEv@Base 6.1.2
 _ZNK17QwtPlotLegendItem9plotItemsEv@Base 6.1.2
 _ZNK17QwtPlotRasterItem11cachePolicyEv@Base 6.1.2
 _ZNK17QwtPlotRasterItem12boundingRectEv@Base 6.1.2
 _ZNK17QwtPlotRasterItem18testPaintAttributeENS_14PaintAttributeE@Base 6.1.2
 _ZNK17QwtPlotRasterItem4drawEP8QPainterRK11QwtScaleMapS4_RK6QRectF@Base 6.1.2
 _ZNK17QwtPlotRasterItem5alphaEv@Base 6.1.2
 _ZNK17QwtPlotRasterItem7composeERK11QwtScaleMapS2_RK6QRectFS5_RK5QSizeb@Base 6.1.2
 _ZNK17QwtPlotRasterItem8imageMapEN2Qt11OrientationERK11QwtScaleMapRK6QRectFRK5QSized@Base 6.1.2
 _ZNK17QwtPlotRasterItem8intervalEN2Qt4AxisE@Base 6.1.2
 _ZNK17QwtPlotRasterItem9pixelHintERK6QRectF@Base 6.1.2
 _ZNK17QwtPlotSeriesItem11orientationEv@Base 6.1.2
 _ZNK17QwtPlotSeriesItem12boundingRectEv@Base 6.1.2
 _ZNK17QwtPlotSeriesItem4drawEP8QPainterRK11QwtScaleMapS4_RK6QRectF@Base 6.1.2
 _ZNK17QwtPointArrayData12boundingRectEv@Base 6.1.2
 _ZNK17QwtPointArrayData4sizeEv@Base 6.1.2
 _ZNK17QwtPointArrayData5xDataEv@Base 6.1.2
 _ZNK17QwtPointArrayData5yDataEv@Base 6.1.2
 (subst)_ZNK17QwtPointArrayData6sampleE{size_t}@Base 6.1.2
 (optional=templinst)_ZNK17QwtPolygonClipperI8QPolygon5QRect6QPointiE11clipPolygonERKS0_b@Base 6.1.2
 (optional=templinst)_ZNK17QwtPolygonClipperI8QPolygon5QRect6QPointiE8clipEdgeIN7QwtClip10BottomEdgeIS2_iEEEEvbRNS5_11PointBufferIS2_EESA_@Base 6.1.4
 (optional=templinst)_ZNK17QwtPolygonClipperI8QPolygon5QRect6QPointiE8clipEdgeIN7QwtClip7TopEdgeIS2_iEEEEvbRNS5_11PointBufferIS2_EESA_@Base 6.1.4
 (optional=templinst)_ZNK17QwtPolygonClipperI8QPolygon5QRect6QPointiE8clipEdgeIN7QwtClip8LeftEdgeIS2_iEEEEvbRNS5_11PointBufferIS2_EESA_@Base 6.1.4
 (optional=templinst)_ZNK17QwtPolygonClipperI8QPolygon5QRect6QPointiE8clipEdgeIN7QwtClip9RightEdgeIS2_iEEEEvbRNS5_11PointBufferIS2_EESA_@Base 6.1.4
 (optional=templinst)_ZNK17QwtPolygonClipperI9QPolygonF6QRectF7QPointFdE11clipPolygonERKS0_b@Base 6.1.4
 _ZNK17QwtPowerTransform12invTransformEd@Base 6.1.2
 _ZNK17QwtPowerTransform4copyEv@Base 6.1.2
 _ZNK17QwtPowerTransform9transformEd@Base 6.1.2
 _ZNK17QwtRichTextEngine10taggedTextERK7QStringi@Base 6.1.2
 _ZNK17QwtRichTextEngine11mightRenderERK7QString@Base 6.1.2
 _ZNK17QwtRichTextEngine11textMarginsERK5QFontRK7QStringRdS6_S6_S6_@Base 6.1.2
 _ZNK17QwtRichTextEngine14heightForWidthERK5QFontiRK7QStringd@Base 6.1.2
 _ZNK17QwtRichTextEngine4drawEP8QPainterRK6QRectFiRK7QString@Base 6.1.2
 _ZNK17QwtRichTextEngine8textSizeERK5QFontiRK7QString@Base 6.1.2
 _ZNK17QwtRoundScaleDraw12drawBackboneEP8QPainter@Base 6.1.2
 _ZNK17QwtRoundScaleDraw6centerEv@Base 6.1.2
 _ZNK17QwtRoundScaleDraw6extentERK5QFont@Base 6.1.2
 _ZNK17QwtRoundScaleDraw6radiusEv@Base 6.1.2
 _ZNK17QwtRoundScaleDraw8drawTickEP8QPainterdd@Base 6.1.2
 _ZNK17QwtRoundScaleDraw9drawLabelEP8QPainterd@Base 6.1.2
 _ZNK17QwtSamplingThread10metaObjectEv@Base 6.1.2
 _ZNK17QwtSamplingThread7elapsedEv@Base 6.1.2
 _ZNK17QwtSamplingThread8intervalEv@Base 6.1.2
 _ZNK17QwtTextEngineDict10textEngineEN7QwtText10TextFormatE@Base 6.1.2
 _ZNK17QwtTextEngineDict10textEngineERK7QStringN7QwtText10TextFormatE@Base 6.1.2
 (optional=templinst)_ZNK18QwtArraySeriesDataI10QwtPoint3DE4sizeEv@Base 6.1.2
 (optional=templinst|subst)_ZNK18QwtArraySeriesDataI10QwtPoint3DE6sampleE{size_t}@Base 6.1.2
 (optional=templinst)_ZNK18QwtArraySeriesDataI12QwtSetSampleE4sizeEv@Base 6.1.2
 (optional=templinst|subst)_ZNK18QwtArraySeriesDataI12QwtSetSampleE6sampleE{size_t}@Base 6.1.2
 (optional=templinst)_ZNK18QwtArraySeriesDataI13QwtOHLCSampleE4sizeEv@Base 6.1.2
 (optional=templinst|subst)_ZNK18QwtArraySeriesDataI13QwtOHLCSampleE6sampleE{size_t}@Base 6.1.2
 (optional=templinst)_ZNK18QwtArraySeriesDataI17QwtIntervalSampleE4sizeEv@Base 6.1.2
 (optional=templinst|subst)_ZNK18QwtArraySeriesDataI17QwtIntervalSampleE6sampleE{size_t}@Base 6.1.2
 (optional=templinst)_ZNK18QwtArraySeriesDataI7QPointFE4sizeEv@Base 6.1.2
 (optional=templinst|subst)_ZNK18QwtArraySeriesDataI7QPointFE6sampleE{size_t}@Base 6.1.2
 _ZNK18QwtDateScaleEngine10toDateTimeEd@Base 6.1.2
 _ZNK18QwtDateScaleEngine11divideScaleEddiid@Base 6.1.2
 _ZNK18QwtDateScaleEngine12intervalTypeERK9QDateTimeS2_i@Base 6.1.2
 _ZNK18QwtDateScaleEngine13buildScaleDivERK9QDateTimeS2_iiN7QwtDate12IntervalTypeE@Base 6.1.2
 _ZNK18QwtDateScaleEngine8maxWeeksEv@Base 6.1.2
 _ZNK18QwtDateScaleEngine8timeSpecEv@Base 6.1.2
 _ZNK18QwtDateScaleEngine9alignDateERK9QDateTimedN7QwtDate12IntervalTypeEb@Base 6.1.2
 _ZNK18QwtDateScaleEngine9autoScaleEiRdS0_S0_@Base 6.1.2
 _ZNK18QwtDateScaleEngine9utcOffsetEv@Base 6.1.2
 _ZNK18QwtDateScaleEngine9week0TypeEv@Base 6.1.2
 _ZNK18QwtNullPaintDevice11PaintEngine4typeEv@Base 6.1.2
 _ZNK18QwtNullPaintDevice11paintEngineEv@Base 6.1.2
 _ZNK18QwtNullPaintDevice4modeEv@Base 6.1.2
 _ZNK18QwtNullPaintDevice6metricEN12QPaintDevice17PaintDeviceMetricE@Base 6.1.2
 _ZNK18QwtPlainTextEngine11mightRenderERK7QString@Base 6.1.2
 _ZNK18QwtPlainTextEngine11textMarginsERK5QFontRK7QStringRdS6_S6_S6_@Base 6.1.2
 _ZNK18QwtPlainTextEngine14heightForWidthERK5QFontiRK7QStringd@Base 6.1.2
 _ZNK18QwtPlainTextEngine4drawEP8QPainterRK6QRectFiRK7QString@Base 6.1.2
 _ZNK18QwtPlainTextEngine8textSizeERK5QFontiRK7QString@Base 6.1.2
 _ZNK18QwtPlotSpectrogram10contourPenEd@Base 6.1.2
 _ZNK18QwtPlotSpectrogram10renderTileERK11QwtScaleMapS2_RK5QRectP6QImage@Base 6.1.2
 _ZNK18QwtPlotSpectrogram11renderImageERK11QwtScaleMapS2_RK6QRectFRK5QSize@Base 6.1.2
 _ZNK18QwtPlotSpectrogram13contourLevelsEv@Base 6.1.2
 _ZNK18QwtPlotSpectrogram14testConrecFlagEN13QwtRasterData10ConrecFlagE@Base 6.1.2
 _ZNK18QwtPlotSpectrogram15testDisplayModeENS_11DisplayModeE@Base 6.1.2
 _ZNK18QwtPlotSpectrogram16drawContourLinesEP8QPainterRK11QwtScaleMapS4_RK4QMapId9QPolygonFE@Base 6.1.2
 _ZNK18QwtPlotSpectrogram17contourRasterSizeERK6QRectFRK5QRect@Base 6.1.2
 _ZNK18QwtPlotSpectrogram17defaultContourPenEv@Base 6.1.2
 _ZNK18QwtPlotSpectrogram18renderContourLinesERK6QRectFRK5QSize@Base 6.1.2
 _ZNK18QwtPlotSpectrogram4dataEv@Base 6.1.2
 _ZNK18QwtPlotSpectrogram4drawEP8QPainterRK11QwtScaleMapS4_RK6QRectF@Base 6.1.2
 _ZNK18QwtPlotSpectrogram4rttiEv@Base 6.1.2
 _ZNK18QwtPlotSpectrogram8colorMapEv@Base 6.1.2
 _ZNK18QwtPlotSpectrogram8intervalEN2Qt4AxisE@Base 6.1.2
 _ZNK18QwtPlotSpectrogram9pixelHintERK6QRectF@Base 6.1.2
 _ZNK18QwtPointSeriesData12boundingRectEv@Base 6.1.2
 _ZNK19QwtCompassScaleDraw5labelEd@Base 6.1.2
 _ZNK19QwtCompassScaleDraw8labelMapEv@Base 6.1.2
 _ZNK19QwtCompassWindArrow10drawNeedleEP8QPainterdN8QPalette10ColorGroupE@Base 6.1.2
 _ZNK19QwtDialSimpleNeedle10drawNeedleEP8QPainterdN8QPalette10ColorGroupE@Base 6.1.2
 _ZNK19QwtDialSimpleNeedle5widthEv@Base 6.1.2
 _ZNK19QwtLegendLayoutItem11maximumSizeEv@Base 6.1.2
 _ZNK19QwtLegendLayoutItem11minimumSizeEv@Base 6.1.2
 _ZNK19QwtLegendLayoutItem14heightForWidthEi@Base 6.1.2
 _ZNK19QwtLegendLayoutItem17hasHeightForWidthEv@Base 6.1.2
 _ZNK19QwtLegendLayoutItem19expandingDirectionsEv@Base 6.1.2
 _ZNK19QwtLegendLayoutItem21minimumHeightForWidthEi@Base 6.1.2
 _ZNK19QwtLegendLayoutItem4dataEv@Base 6.1.2
 _ZNK19QwtLegendLayoutItem7isEmptyEv@Base 6.1.2
 _ZNK19QwtLegendLayoutItem8geometryEv@Base 6.1.2
 _ZNK19QwtLegendLayoutItem8plotItemEv@Base 6.1.2
 _ZNK19QwtLegendLayoutItem8sizeHintEv@Base 6.1.2
 _ZNK19QwtMatrixRasterData10numColumnsEv@Base 6.1.2
 _ZNK19QwtMatrixRasterData11valueMatrixEv@Base 6.1.2
 _ZNK19QwtMatrixRasterData12resampleModeEv@Base 6.1.2
 _ZNK19QwtMatrixRasterData5valueEdd@Base 6.1.2
 _ZNK19QwtMatrixRasterData7numRowsEv@Base 6.1.2
 _ZNK19QwtMatrixRasterData9pixelHintERK6QRectF@Base 6.1.2
 _ZNK19QwtPickerRubberband11drawOverlayEP8QPainter@Base 6.1.2
 _ZNK19QwtPickerRubberband8maskHintEv@Base 6.1.2
 _ZNK19QwtPlotSpectroCurve10colorRangeEv@Base 6.1.2
 _ZNK19QwtPlotSpectroCurve10drawSeriesEP8QPainterRK11QwtScaleMapS4_RK6QRectFii@Base 6.1.2
 _ZNK19QwtPlotSpectroCurve18testPaintAttributeENS_14PaintAttributeE@Base 6.1.2
 _ZNK19QwtPlotSpectroCurve4rttiEv@Base 6.1.2
 _ZNK19QwtPlotSpectroCurve8colorMapEv@Base 6.1.2
 _ZNK19QwtPlotSpectroCurve8drawDotsEP8QPainterRK11QwtScaleMapS4_RK6QRectFii@Base 6.1.2
 _ZNK19QwtPlotSpectroCurve8penWidthEv@Base 6.1.2
 _ZNK19QwtPlotTradingCurve10drawSeriesEP8QPainterRK11QwtScaleMapS4_RK6QRectFii@Base 6.1.2
 _ZNK19QwtPlotTradingCurve10legendIconEiRK6QSizeF@Base 6.1.2
 _ZNK19QwtPlotTradingCurve11drawSymbolsEP8QPainterRK11QwtScaleMapS4_RK6QRectFii@Base 6.1.2
 _ZNK19QwtPlotTradingCurve11symbolBrushENS_9DirectionE@Base 6.1.2
 _ZNK19QwtPlotTradingCurve11symbolStyleEv@Base 6.1.2
 _ZNK19QwtPlotTradingCurve12boundingRectEv@Base 6.1.2
 _ZNK19QwtPlotTradingCurve12symbolExtentEv@Base 6.1.2
 _ZNK19QwtPlotTradingCurve14drawUserSymbolEP8QPainterNS_11SymbolStyleERK13QwtOHLCSampleN2Qt11OrientationEbd@Base 6.1.2
 _ZNK19QwtPlotTradingCurve14maxSymbolWidthEv@Base 6.1.2
 _ZNK19QwtPlotTradingCurve14minSymbolWidthEv@Base 6.1.2
 _ZNK19QwtPlotTradingCurve15drawCandleStickEP8QPainterRK13QwtOHLCSampleN2Qt11OrientationEd@Base 6.1.2
 _ZNK19QwtPlotTradingCurve17scaledSymbolWidthERK11QwtScaleMapS2_RK6QRectF@Base 6.1.2
 _ZNK19QwtPlotTradingCurve18testPaintAttributeENS_14PaintAttributeE@Base 6.1.2
 _ZNK19QwtPlotTradingCurve4rttiEv@Base 6.1.2
 _ZNK19QwtPlotTradingCurve7drawBarEP8QPainterRK13QwtOHLCSampleN2Qt11OrientationEbd@Base 6.1.2
 _ZNK19QwtPlotTradingCurve9symbolPenEv@Base 6.1.2
 _ZNK19QwtTradingChartData12boundingRectEv@Base 6.1.2
 _ZNK20QwtAbstractScaleDraw10tickLengthEN11QwtScaleDiv8TickTypeE@Base 6.1.2
 _ZNK20QwtAbstractScaleDraw12hasComponentENS_14ScaleComponentE@Base 6.1.2
 _ZNK20QwtAbstractScaleDraw13maxTickLengthEv@Base 6.1.2
 _ZNK20QwtAbstractScaleDraw13minimumExtentEv@Base 6.1.2
 _ZNK20QwtAbstractScaleDraw4drawEP8QPainterRK8QPalette@Base 6.1.2
 _ZNK20QwtAbstractScaleDraw5labelEd@Base 6.1.2
 _ZNK20QwtAbstractScaleDraw7spacingEv@Base 6.1.2
 _ZNK20QwtAbstractScaleDraw8penWidthEv@Base 6.1.2
 _ZNK20QwtAbstractScaleDraw8scaleDivEv@Base 6.1.2
 _ZNK20QwtAbstractScaleDraw8scaleMapEv@Base 6.1.2
 _ZNK20QwtAbstractScaleDraw9tickLabelERK5QFontd@Base 6.1.2
 _ZNK20QwtLinearScaleEngine10buildTicksERK11QwtIntervaldiP5QListIdE@Base 6.1.2
 _ZNK20QwtLinearScaleEngine11divideScaleEddiid@Base 6.1.2
 _ZNK20QwtLinearScaleEngine15buildMajorTicksERK11QwtIntervald@Base 6.1.2
 _ZNK20QwtLinearScaleEngine15buildMinorTicksERK5QListIdEidRS1_S4_@Base 6.1.2
 _ZNK20QwtLinearScaleEngine5alignERK11QwtIntervald@Base 6.1.2
 _ZNK20QwtLinearScaleEngine9autoScaleEiRdS0_S0_@Base 6.1.2
 _ZNK20QwtPlotDirectPainter10clipRegionEv@Base 6.1.2
 _ZNK20QwtPlotDirectPainter11hasClippingEv@Base 6.1.2
 _ZNK20QwtPlotDirectPainter13testAttributeENS_9AttributeE@Base 6.1.2
 _ZNK20QwtPlotIntervalCurve10drawSeriesEP8QPainterRK11QwtScaleMapS4_RK6QRectFii@Base 6.1.2
 _ZNK20QwtPlotIntervalCurve10legendIconEiRK6QSizeF@Base 6.1.2
 _ZNK20QwtPlotIntervalCurve11drawSymbolsEP8QPainterRK17QwtIntervalSymbolRK11QwtScaleMapS7_RK6QRectFii@Base 6.1.2
 _ZNK20QwtPlotIntervalCurve12boundingRectEv@Base 6.1.2
 _ZNK20QwtPlotIntervalCurve18testPaintAttributeENS_14PaintAttributeE@Base 6.1.2
 _ZNK20QwtPlotIntervalCurve3penEv@Base 6.1.2
 _ZNK20QwtPlotIntervalCurve4rttiEv@Base 6.1.2
 _ZNK20QwtPlotIntervalCurve5brushEv@Base 6.1.2
 _ZNK20QwtPlotIntervalCurve5styleEv@Base 6.1.2
 _ZNK20QwtPlotIntervalCurve6symbolEv@Base 6.1.2
 _ZNK20QwtPlotIntervalCurve8drawTubeEP8QPainterRK11QwtScaleMapS4_RK6QRectFii@Base 6.1.2
 _ZNK20QwtPlotMultiBarChart10drawSampleEP8QPainterRK11QwtScaleMapS4_RK6QRectFRK11QwtIntervaliRK12QwtSetSample@Base 6.1.2
 _ZNK20QwtPlotMultiBarChart10drawSeriesEP8QPainterRK11QwtScaleMapS4_RK6QRectFii@Base 6.1.2
 _ZNK20QwtPlotMultiBarChart10legendDataEv@Base 6.1.2
 _ZNK20QwtPlotMultiBarChart10legendIconEiRK6QSizeF@Base 6.1.2
 _ZNK20QwtPlotMultiBarChart12boundingRectEv@Base 6.1.2
 _ZNK20QwtPlotMultiBarChart13specialSymbolEii@Base 6.1.2
 _ZNK20QwtPlotMultiBarChart15drawGroupedBarsEP8QPainterRK11QwtScaleMapS4_RK6QRectFidRK12QwtSetSample@Base 6.1.2
 _ZNK20QwtPlotMultiBarChart15drawStackedBarsEP8QPainterRK11QwtScaleMapS4_RK6QRectFidRK12QwtSetSample@Base 6.1.2
 _ZNK20QwtPlotMultiBarChart4rttiEv@Base 6.1.2
 _ZNK20QwtPlotMultiBarChart5styleEv@Base 6.1.2
 _ZNK20QwtPlotMultiBarChart6symbolEi@Base 6.1.2
 _ZNK20QwtPlotMultiBarChart7drawBarEP8QPainteriiRK13QwtColumnRect@Base 6.1.2
 _ZNK20QwtPlotMultiBarChart9barTitlesEv@Base 6.1.2
 _ZNK20QwtPoint3DSeriesData12boundingRectEv@Base 6.1.2
 _ZNK20QwtSimpleCompassRose12shrinkFactorEv@Base 6.1.2
 _ZNK20QwtSimpleCompassRose14numThornLevelsEv@Base 6.1.2
 _ZNK20QwtSimpleCompassRose4drawEP8QPainterRK7QPointFddN8QPalette10ColorGroupE@Base 6.1.2
 _ZNK20QwtSimpleCompassRose5widthEv@Base 6.1.2
 _ZNK20QwtSimpleCompassRose9numThornsEv@Base 6.1.2
 _ZNK20QwtSplineCurveFitter10splineSizeEv@Base 6.1.2
 _ZNK20QwtSplineCurveFitter13fitParametricERK9QPolygonF@Base 6.1.2
 _ZNK20QwtSplineCurveFitter6splineEv@Base 6.1.2
 _ZNK20QwtSplineCurveFitter7fitModeEv@Base 6.1.2
 _ZNK20QwtSplineCurveFitter8fitCurveERK9QPolygonF@Base 6.1.2
 _ZNK20QwtSplineCurveFitter9fitSplineERK9QPolygonF@Base 6.1.2
 _ZNK21QwtIntervalSeriesData12boundingRectEv@Base 6.1.2
 _ZNK21QwtStyleSheetRecorder11sizeMetricsEv@Base 6.1.2
 _ZNK21QwtSyntheticPointData12boundingRectEv@Base 6.1.2
 _ZNK21QwtSyntheticPointData14rectOfInterestEv@Base 6.1.2
 _ZNK21QwtSyntheticPointData1xEj@Base 6.1.2
 _ZNK21QwtSyntheticPointData4sizeEv@Base 6.1.2
 (subst)_ZNK21QwtSyntheticPointData6sampleE{size_t}@Base 6.1.2
 _ZNK21QwtSyntheticPointData8intervalEv@Base 6.1.2
 _ZNK21QwtWeedingCurveFitter8fitCurveERK9QPolygonF@Base 6.1.2
 _ZNK21QwtWeedingCurveFitter8simplifyERK9QPolygonF@Base 6.1.2
 _ZNK21QwtWeedingCurveFitter9chunkSizeEv@Base 6.1.2
 _ZNK21QwtWeedingCurveFitter9toleranceEv@Base 6.1.2
 _ZNK22QwtCompassMagnetNeedle10drawNeedleEP8QPainterdN8QPalette10ColorGroupE@Base 6.1.2
 _ZNK23QwtAnalogClockScaleDraw5labelEd@Base 6.1.2
 _ZNK23QwtPlotAbstractBarChart10layoutHintEv@Base 6.1.2
 _ZNK23QwtPlotAbstractBarChart11sampleWidthERK11QwtScaleMapddd@Base 6.1.2
 _ZNK23QwtPlotAbstractBarChart12layoutPolicyEv@Base 6.1.2
 _ZNK23QwtPlotAbstractBarChart19getCanvasMarginHintERK11QwtScaleMapS2_RK6QRectFRdS6_S6_S6_@Base 6.1.2
 _ZNK23QwtPlotAbstractBarChart6marginEv@Base 6.1.2
 _ZNK23QwtPlotAbstractBarChart7spacingEv@Base 6.1.2
 _ZNK23QwtPlotAbstractBarChart8baselineEv@Base 6.1.2
 (optional=templinst|arch=!alpha !armel !hppa !mips !mips64el !mipsel !powerpcspe !sparc64)_ZNK4QMapIPK11QwtPlotItem5QListIP19QwtLegendLayoutItemEE4keysEv@Base 6.1.4
 (optional=templinst)_ZNK7QVectorI7QPointFE3midEii@Base 6.1.2
 _ZNK7QwtDial10drawNeedleEP8QPainter@Base 6.1.2
 _ZNK7QwtDial10drawNeedleEP8QPainterRK7QPointFddN8QPalette10ColorGroupE@Base 6.1.2
 _ZNK7QwtDial10metaObjectEv@Base 6.1.2
 _ZNK7QwtDial10scrolledToERK6QPoint@Base 6.1.2
 _ZNK7QwtDial11frameShadowEv@Base 6.1.2
 _ZNK7QwtDial11maxScaleArcEv@Base 6.1.2
 _ZNK7QwtDial11minScaleArcEv@Base 6.1.2
 _ZNK7QwtDial12boundingRectEv@Base 6.1.2
 _ZNK7QwtDial12drawContentsEP8QPainter@Base 6.1.2
 _ZNK7QwtDial14scaleInnerRectEv@Base 6.1.2
 _ZNK7QwtDial15minimumSizeHintEv@Base 6.1.2
 _ZNK7QwtDial16isScrollPositionERK6QPoint@Base 6.1.2
 _ZNK7QwtDial17drawScaleContentsEP8QPainterRK7QPointFd@Base 6.1.2
 _ZNK7QwtDial18drawFocusIndicatorEP8QPainter@Base 6.1.2
 _ZNK7QwtDial4modeEv@Base 6.1.2
 _ZNK7QwtDial6needleEv@Base 6.1.2
 _ZNK7QwtDial6originEv@Base 6.1.2
 _ZNK7QwtDial8sizeHintEv@Base 6.1.2
 _ZNK7QwtDial9drawScaleEP8QPainterRK7QPointFd@Base 6.1.2
 _ZNK7QwtDial9innerRectEv@Base 6.1.2
 _ZNK7QwtDial9lineWidthEv@Base 6.1.2
 _ZNK7QwtDial9scaleDrawEv@Base 6.1.2
 _ZNK7QwtKnob10drawMarkerEP8QPainterRK6QRectFd@Base 6.1.2
 _ZNK7QwtKnob10markerSizeEv@Base 6.1.2
 _ZNK7QwtKnob10metaObjectEv@Base 6.1.2
 _ZNK7QwtKnob10scrolledToERK6QPoint@Base 6.1.2
 _ZNK7QwtKnob10totalAngleEv@Base 6.1.2
 _ZNK7QwtKnob11borderWidthEv@Base 6.1.2
 _ZNK7QwtKnob11markerStyleEv@Base 6.1.2
 _ZNK7QwtKnob15minimumSizeHintEv@Base 6.1.2
 _ZNK7QwtKnob16isScrollPositionERK6QPoint@Base 6.1.2
 _ZNK7QwtKnob18drawFocusIndicatorEP8QPainter@Base 6.1.2
 _ZNK7QwtKnob8drawKnobEP8QPainterRK6QRectF@Base 6.1.2
 _ZNK7QwtKnob8knobRectEv@Base 6.1.2
 _ZNK7QwtKnob8numTurnsEv@Base 6.1.2
 _ZNK7QwtKnob8sizeHintEv@Base 6.1.2
 _ZNK7QwtKnob9alignmentEv@Base 6.1.2
 _ZNK7QwtKnob9knobStyleEv@Base 6.1.2
 _ZNK7QwtKnob9knobWidthEv@Base 6.1.2
 _ZNK7QwtKnob9scaleDrawEv@Base 6.1.2
 _ZNK7QwtPlot10autoReplotEv@Base 6.1.2
 _ZNK7QwtPlot10axisWidgetEi@Base 6.1.2
 _ZNK7QwtPlot10infoToItemERK8QVariant@Base 6.1.2
 _ZNK7QwtPlot10itemToInfoEP11QwtPlotItem@Base 6.1.2
 _ZNK7QwtPlot10metaObjectEv@Base 6.1.2
 _ZNK7QwtPlot10plotLayoutEv@Base 6.1.2
 _ZNK7QwtPlot10titleLabelEv@Base 6.1.2
 _ZNK7QwtPlot11axisEnabledEi@Base 6.1.2
 _ZNK7QwtPlot11footerLabelEv@Base 6.1.2
 _ZNK7QwtPlot12axisIntervalEi@Base 6.1.2
 _ZNK7QwtPlot12axisMaxMajorEi@Base 6.1.2
 _ZNK7QwtPlot12axisMaxMinorEi@Base 6.1.2
 _ZNK7QwtPlot12axisScaleDivEi@Base 6.1.2
 _ZNK7QwtPlot12axisStepSizeEi@Base 6.1.2
 _ZNK7QwtPlot12invTransformEii@Base 6.1.2
 _ZNK7QwtPlot13axisAutoScaleEi@Base 6.1.2
 _ZNK7QwtPlot13axisScaleDrawEi@Base 6.1.2
 _ZNK7QwtPlot14grabPropertiesEv@Base 6.1.2
 _ZNK7QwtPlot15axisScaleEngineEi@Base 6.1.2
 _ZNK7QwtPlot15minimumSizeHintEv@Base 6.1.2
 _ZNK7QwtPlot16canvasBackgroundEv@Base 6.1.2
 _ZNK7QwtPlot20getCanvasMarginsHintEPK11QwtScaleMapRK6QRectFRdS6_S6_S6_@Base 6.1.2
 _ZNK7QwtPlot5titleEv@Base 6.1.2
 _ZNK7QwtPlot6canvasEv@Base 6.1.2
 _ZNK7QwtPlot6footerEv@Base 6.1.2
 _ZNK7QwtPlot6legendEv@Base 6.1.2
 _ZNK7QwtPlot8axisFontEi@Base 6.1.2
 _ZNK7QwtPlot8sizeHintEv@Base 6.1.2
 _ZNK7QwtPlot9axisTitleEi@Base 6.1.2
 _ZNK7QwtPlot9canvasMapEi@Base 6.1.2
 _ZNK7QwtPlot9drawItemsEP8QPainterRK6QRectFPK11QwtScaleMap@Base 6.1.2
 _ZNK7QwtPlot9transformEid@Base 6.1.2
 _ZNK7QwtText11renderFlagsEv@Base 6.1.2
 _ZNK7QwtText12borderRadiusEv@Base 6.1.2
 _ZNK7QwtText14heightForWidthEdRK5QFont@Base 6.1.2
 _ZNK7QwtText15backgroundBrushEv@Base 6.1.2
 _ZNK7QwtText18testPaintAttributeENS_14PaintAttributeE@Base 6.1.2
 _ZNK7QwtText19testLayoutAttributeENS_15LayoutAttributeE@Base 6.1.2
 _ZNK7QwtText4drawEP8QPainterRK6QRectF@Base 6.1.2
 _ZNK7QwtText4fontEv@Base 6.1.2
 _ZNK7QwtText4textEv@Base 6.1.2
 _ZNK7QwtText5colorEv@Base 6.1.2
 _ZNK7QwtText8textSizeERK5QFont@Base 6.1.2
 _ZNK7QwtText8usedFontERK5QFont@Base 6.1.2
 _ZNK7QwtText9borderPenEv@Base 6.1.2
 _ZNK7QwtText9usedColorERK6QColor@Base 6.1.2
 _ZNK7QwtTexteqERKS_@Base 6.1.2
 _ZNK7QwtTextneERKS_@Base 6.1.2
 (optional=templinst)_ZNK8QMapDataIPK11QwtPlotItem5QListIP19QwtLegendLayoutItemEE8findNodeERKS2_@Base 6.1.4
 (optional=templinst|arch=armel armhf hurd-i386 i386 kfreebsd-i386 mips mipsel powerpc powerpcspe)_ZNK8QMapDataId7QStringE8findNodeERKd@Base 6.1.2
 (optional=templinst)_ZNK8QMapNodeI7QStringiE4copyEP8QMapDataIS0_iE@Base 6.1.2
 (optional=templinst)_ZNK8QMapNodeIPK11QwtPlotItem5QListIP19QwtLegendLayoutItemEE4copyEP8QMapDataIS2_S6_E@Base 6.1.2
 (optional=templinst)_ZNK8QMapNodeId7QStringE4copyEP8QMapDataIdS0_E@Base 6.1.2
 (optional=templinst)_ZNK8QMapNodeId7QwtTextE4copyEP8QMapDataIdS0_E@Base 6.1.2
 (optional=templinst)_ZNK8QMapNodeId9QPolygonFE4copyEP8QMapDataIdS0_E@Base 6.1.2
 (optional=templinst)_ZNK8QMapNodeIi8QVariantE4copyEP8QMapDataIiS0_E@Base 6.1.2
 (optional=templinst)_ZNK8QMapNodeIiP13QwtTextEngineE4copyEP8QMapDataIiS1_E@Base 6.1.2
 (optional=templinst)_ZNK8QMapNodeIiP15QwtColumnSymbolE4copyEP8QMapDataIiS1_E@Base 6.1.2
 _ZNK8QwtWheel10isInvertedEv@Base 6.1.2
 _ZNK8QwtWheel10isTrackingEv@Base 6.1.2
 _ZNK8QwtWheel10metaObjectEv@Base 6.1.2
 _ZNK8QwtWheel10singleStepEv@Base 6.1.2
 _ZNK8QwtWheel10totalAngleEv@Base 6.1.2
 _ZNK8QwtWheel10wheelWidthEv@Base 6.1.2
 _ZNK8QwtWheel11borderWidthEv@Base 6.1.2
 _ZNK8QwtWheel11orientationEv@Base 6.1.2
 _ZNK8QwtWheel12alignedValueEd@Base 6.1.2
 _ZNK8QwtWheel12boundedValueEd@Base 6.1.2
 _ZNK8QwtWheel13pageStepCountEv@Base 6.1.2
 _ZNK8QwtWheel13stepAlignmentEv@Base 6.1.2
 _ZNK8QwtWheel14updateIntervalEv@Base 6.1.2
 _ZNK8QwtWheel15minimumSizeHintEv@Base 6.1.2
 _ZNK8QwtWheel16wheelBorderWidthEv@Base 6.1.2
 _ZNK8QwtWheel4massEv@Base 6.1.2
 _ZNK8QwtWheel5valueEv@Base 6.1.2
 _ZNK8QwtWheel7maximumEv@Base 6.1.2
 _ZNK8QwtWheel7minimumEv@Base 6.1.2
 _ZNK8QwtWheel7valueAtERK6QPoint@Base 6.1.2
 _ZNK8QwtWheel8sizeHintEv@Base 6.1.2
 _ZNK8QwtWheel8wrappingEv@Base 6.1.2
 _ZNK8QwtWheel9tickCountEv@Base 6.1.2
 _ZNK8QwtWheel9viewAngleEv@Base 6.1.2
 _ZNK8QwtWheel9wheelRectEv@Base 6.1.2
 _ZNK9QwtLegend10maxColumnsEv@Base 6.1.2
 _ZNK9QwtLegend10metaObjectEv@Base 6.1.2
 _ZNK9QwtLegend10renderItemEP8QPainterPK7QWidgetRK6QRectFb@Base 6.1.2
 _ZNK9QwtLegend12createWidgetERK13QwtLegendData@Base 6.1.2
 _ZNK9QwtLegend12legendWidgetERK8QVariant@Base 6.1.2
 _ZNK9QwtLegend12renderLegendEP8QPainterRK6QRectFb@Base 6.1.2
 _ZNK9QwtLegend12scrollExtentEN2Qt11OrientationE@Base 6.1.2
 _ZNK9QwtLegend13legendWidgetsERK8QVariant@Base 6.1.2
 _ZNK9QwtLegend14contentsWidgetEv@Base 6.1.2
 _ZNK9QwtLegend14heightForWidthEi@Base 6.1.2
 _ZNK9QwtLegend15defaultItemModeEv@Base 6.1.2
 _ZNK9QwtLegend17verticalScrollBarEv@Base 6.1.2
 _ZNK9QwtLegend19horizontalScrollBarEv@Base 6.1.2
 _ZNK9QwtLegend7isEmptyEv@Base 6.1.2
 _ZNK9QwtLegend8itemInfoEPK7QWidget@Base 6.1.2
 _ZNK9QwtLegend8sizeHintEv@Base 6.1.2
 _ZNK9QwtPanner10metaObjectEv@Base 6.1.2
 _ZNK9QwtPanner11getAbortKeyERiR6QFlagsIN2Qt16KeyboardModifierEE@Base 6.1.2
 _ZNK9QwtPanner12contentsMaskEv@Base 6.1.2
 _ZNK9QwtPanner12orientationsEv@Base 6.1.2
 _ZNK9QwtPanner14getMouseButtonERN2Qt11MouseButtonER6QFlagsINS0_16KeyboardModifierEE@Base 6.1.2
 _ZNK9QwtPanner20isOrientationEnabledEN2Qt11OrientationE@Base 6.1.2
 _ZNK9QwtPanner4grabEv@Base 6.1.2
 _ZNK9QwtPanner6cursorEv@Base 6.1.2
 _ZNK9QwtPanner9isEnabledEv@Base 6.1.2
 _ZNK9QwtPicker10metaObjectEv@Base 6.1.2
 _ZNK9QwtPicker10resizeModeEv@Base 6.1.2
 _ZNK9QwtPicker10rubberBandEv@Base 6.1.2
 _ZNK9QwtPicker10trackerPenEv@Base 6.1.2
 _ZNK9QwtPicker11drawTrackerEP8QPainter@Base 6.1.2
 _ZNK9QwtPicker11trackerFontEv@Base 6.1.2
 _ZNK9QwtPicker11trackerModeEv@Base 6.1.2
 _ZNK9QwtPicker11trackerRectERK5QFont@Base 6.1.2
 _ZNK9QwtPicker11trackerTextERK6QPoint@Base 6.1.2
 _ZNK9QwtPicker12parentWidgetEv@Base 6.1.2
 _ZNK9QwtPicker12pickedPointsEv@Base 6.1.2
 _ZNK9QwtPicker12stateMachineEv@Base 6.1.2
 _ZNK9QwtPicker13rubberBandPenEv@Base 6.1.2
 _ZNK9QwtPicker14adjustedPointsERK8QPolygon@Base 6.1.2
 _ZNK9QwtPicker14drawRubberBandEP8QPainter@Base 6.1.2
 _ZNK9QwtPicker14rubberBandMaskEv@Base 6.1.2
 _ZNK9QwtPicker14trackerOverlayEv@Base 6.1.2
 _ZNK9QwtPicker15trackerPositionEv@Base 6.1.2
 _ZNK9QwtPicker17rubberBandOverlayEv@Base 6.1.2
 _ZNK9QwtPicker6acceptER8QPolygon@Base 6.1.2
 _ZNK9QwtPicker8isActiveEv@Base 6.1.2
 _ZNK9QwtPicker8pickAreaEv@Base 6.1.2
 _ZNK9QwtPicker9isEnabledEv@Base 6.1.2
 _ZNK9QwtPicker9selectionEv@Base 6.1.2
 _ZNK9QwtSlider10drawHandleEP8QPainterRK5QRecti@Base 6.1.2
 _ZNK9QwtSlider10drawSliderEP8QPainterRK5QRect@Base 6.1.2
 _ZNK9QwtSlider10handleRectEv@Base 6.1.2
 _ZNK9QwtSlider10handleSizeEv@Base 6.1.2
 _ZNK9QwtSlider10metaObjectEv@Base 6.1.2
 _ZNK9QwtSlider10scrolledToERK6QPoint@Base 6.1.2
 _ZNK9QwtSlider10sliderRectEv@Base 6.1.2
 _ZNK9QwtSlider11borderWidthEv@Base 6.1.2
 _ZNK9QwtSlider11orientationEv@Base 6.1.2
 _ZNK9QwtSlider13scalePositionEv@Base 6.1.2
 _ZNK9QwtSlider14updateIntervalEv@Base 6.1.2
 _ZNK9QwtSlider15minimumSizeHintEv@Base 6.1.2
 _ZNK9QwtSlider16isScrollPositionERK6QPoint@Base 6.1.2
 _ZNK9QwtSlider7spacingEv@Base 6.1.2
 _ZNK9QwtSlider8sizeHintEv@Base 6.1.2
 _ZNK9QwtSlider9hasGrooveEv@Base 6.1.2
 _ZNK9QwtSlider9hasTroughEv@Base 6.1.2
 _ZNK9QwtSlider9scaleDrawEv@Base 6.1.2
 _ZNK9QwtSpline10splineTypeEv@Base 6.1.2
 _ZNK9QwtSpline13coefficientsAEv@Base 6.1.2
 _ZNK9QwtSpline13coefficientsBEv@Base 6.1.2
 _ZNK9QwtSpline13coefficientsCEv@Base 6.1.2
 _ZNK9QwtSpline5valueEd@Base 6.1.2
 _ZNK9QwtSpline6pointsEv@Base 6.1.2
 _ZNK9QwtSpline7isValidEv@Base 6.1.2
 _ZNK9QwtSymbol10drawSymbolEP8QPainterRK6QRectF@Base 6.1.2
 _ZNK9QwtSymbol11cachePolicyEv@Base 6.1.2
 _ZNK9QwtSymbol11drawSymbolsEP8QPainterPK7QPointFi@Base 6.1.2
 _ZNK9QwtSymbol12boundingRectEv@Base 6.1.2
 _ZNK9QwtSymbol13renderSymbolsEP8QPainterPK7QPointFi@Base 6.1.2
 _ZNK9QwtSymbol17isPinPointEnabledEv@Base 6.1.2
 _ZNK9QwtSymbol3penEv@Base 6.1.2
 _ZNK9QwtSymbol4pathEv@Base 6.1.2
 _ZNK9QwtSymbol4sizeEv@Base 6.1.2
 _ZNK9QwtSymbol5brushEv@Base 6.1.2
 _ZNK9QwtSymbol5styleEv@Base 6.1.2
 _ZNK9QwtSymbol6pixmapEv@Base 6.1.2
 _ZNK9QwtSymbol7graphicEv@Base 6.1.2
 _ZNK9QwtSymbol8pinPointEv@Base 6.1.2
 _ZNK9QwtThermo10alarmBrushEv@Base 6.1.2
 _ZNK9QwtThermo10alarmLevelEv@Base 6.1.2
 _ZNK9QwtThermo10drawLiquidEP8QPainterRK5QRect@Base 6.1.2
 _ZNK9QwtThermo10metaObjectEv@Base 6.1.2
 _ZNK9QwtThermo10originModeEv@Base 6.1.2
 _ZNK9QwtThermo10rangeFlagsEv@Base 6.1.2
 _ZNK9QwtThermo11borderWidthEv@Base 6.1.2
 _ZNK9QwtThermo11orientationEv@Base 6.1.2
 _ZNK9QwtThermo12alarmEnabledEv@Base 6.1.2
 _ZNK9QwtThermo13scalePositionEv@Base 6.1.2
 _ZNK9QwtThermo15minimumSizeHintEv@Base 6.1.2
 _ZNK9QwtThermo5valueEv@Base 6.1.2
 _ZNK9QwtThermo6originEv@Base 6.1.2
 _ZNK9QwtThermo7spacingEv@Base 6.1.2
 _ZNK9QwtThermo8colorMapEv@Base 6.1.2
 _ZNK9QwtThermo8fillRectERK5QRect@Base 6.1.2
 _ZNK9QwtThermo8pipeRectEv@Base 6.1.2
 _ZNK9QwtThermo8sizeHintEv@Base 6.1.2
 _ZNK9QwtThermo9alarmRectERK5QRect@Base 6.1.2
 _ZNK9QwtThermo9fillBrushEv@Base 6.1.2
 _ZNK9QwtThermo9pipeWidthEv@Base 6.1.2
 _ZNK9QwtThermo9scaleDrawEv@Base 6.1.2
 _ZTI10QwtCompass@Base 6.1.2
 _ZTI10QwtCounter@Base 6.1.2
 _ZTI10QwtGraphic@Base 6.1.2
 _ZTI11QwtColorMap@Base 6.1.2
 _ZTI11QwtPlotDict@Base 6.1.2
 _ZTI11QwtPlotGrid@Base 6.1.2
 _ZTI11QwtPlotItem@Base 6.1.2
 _ZTI12QwtMagnifier@Base 6.1.2
 _ZTI12QwtPlotCurve@Base 6.1.2
 _ZTI12QwtScaleDraw@Base 6.1.2
 _ZTI12QwtTextLabel@Base 6.1.2
 _ZTI12QwtTransform@Base 6.1.2
 _ZTI13QwtDialNeedle@Base 6.1.2
 _ZTI13QwtPlotCanvas@Base 6.1.2
 _ZTI13QwtPlotLayout@Base 6.1.2
 _ZTI13QwtPlotMarker@Base 6.1.2
 _ZTI13QwtPlotPanner@Base 6.1.2
 _ZTI13QwtPlotPicker@Base 6.1.2
 _ZTI13QwtPlotZoomer@Base 6.1.2
 _ZTI13QwtRasterData@Base 6.1.2
 _ZTI13QwtSeriesDataI10QwtPoint3DE@Base 6.1.2
 _ZTI13QwtSeriesDataI12QwtSetSampleE@Base 6.1.2
 _ZTI13QwtSeriesDataI13QwtOHLCSampleE@Base 6.1.2
 _ZTI13QwtSeriesDataI17QwtIntervalSampleE@Base 6.1.2
 _ZTI13QwtSeriesDataI7QPointFE@Base 6.1.2
 _ZTI13QwtTextEngine@Base 6.1.2
 _ZTI14QwtAnalogClock@Base 6.1.2
 _ZTI14QwtArrowButton@Base 6.1.2
 _ZTI14QwtCompassRose@Base 6.1.2
 _ZTI14QwtCurveFitter@Base 6.1.2
 _ZTI14QwtLegendLabel@Base 6.1.2
 _ZTI14QwtPlotSvgItem@Base 6.1.2
 _ZTI14QwtScaleEngine@Base 6.1.2
 _ZTI14QwtScaleWidget@Base 6.1.2
 _ZTI14QwtSeriesStoreI10QwtPoint3DE@Base 6.1.2
 _ZTI14QwtSeriesStoreI12QwtSetSampleE@Base 6.1.2
 _ZTI14QwtSeriesStoreI13QwtOHLCSampleE@Base 6.1.2
 _ZTI14QwtSeriesStoreI17QwtIntervalSampleE@Base 6.1.2
 _ZTI14QwtSeriesStoreI7QPointFE@Base 6.1.2
 _ZTI14QwtSystemClock@Base 6.1.2
 _ZTI15QwtCPointerData@Base 6.1.2
 _ZTI15QwtColumnSymbol@Base 6.1.2
 _ZTI15QwtEventPattern@Base 6.1.2
 _ZTI15QwtLogTransform@Base 6.1.2
 _ZTI15QwtPlotBarChart@Base 6.1.2
 _ZTI15QwtPlotGLCanvas@Base 6.1.2
 _ZTI15QwtPlotRenderer@Base 6.1.2
 _ZTI15QwtPlotRescaler@Base 6.1.2
 _ZTI15QwtPlotZoneItem@Base 6.1.2
 _ZTI16QFutureInterfaceIvE@Base 6.1.2
 _ZTI16QwtAbstractScale@Base 6.1.2
 _ZTI16QwtAlphaColorMap@Base 6.1.2
 _ZTI16QwtDateScaleDraw@Base 6.1.2
 _ZTI16QwtDynGridLayout@Base 6.1.2
 _ZTI16QwtNullTransform@Base 6.1.2
 _ZTI16QwtPickerMachine@Base 6.1.2
 _ZTI16QwtPickerTracker@Base 6.1.2
 _ZTI16QwtPlotHistogram@Base 6.1.2
 _ZTI16QwtPlotMagnifier@Base 6.1.2
 _ZTI16QwtPlotScaleItem@Base 6.1.2
 _ZTI16QwtPlotShapeItem@Base 6.1.2
 _ZTI16QwtPlotTextLabel@Base 6.1.2
 _ZTI16QwtSetSeriesData@Base 6.1.2
 _ZTI16QwtWidgetOverlay@Base 6.1.2
 _ZTI17QwtAbstractLegend@Base 6.1.2
 _ZTI17QwtAbstractSlider@Base 6.1.2
 _ZTI17QwtIntervalSymbol@Base 6.1.2
 _ZTI17QwtLinearColorMap@Base 6.1.2
 _ZTI17QwtLogScaleEngine@Base 6.1.2
 _ZTI17QwtPlotLegendItem@Base 6.1.2
 _ZTI17QwtPlotRasterItem@Base 6.1.2
 _ZTI17QwtPlotSeriesItem@Base 6.1.2
 _ZTI17QwtPointArrayData@Base 6.1.2
 _ZTI17QwtPowerTransform@Base 6.1.2
 _ZTI17QwtRichTextEngine@Base 6.1.2
 _ZTI17QwtRoundScaleDraw@Base 6.1.2
 _ZTI17QwtSamplingThread@Base 6.1.2
 _ZTI18QwtArraySeriesDataI10QwtPoint3DE@Base 6.1.2
 _ZTI18QwtArraySeriesDataI12QwtSetSampleE@Base 6.1.2
 _ZTI18QwtArraySeriesDataI13QwtOHLCSampleE@Base 6.1.2
 _ZTI18QwtArraySeriesDataI17QwtIntervalSampleE@Base 6.1.2
 _ZTI18QwtArraySeriesDataI7QPointFE@Base 6.1.2
 _ZTI18QwtDateScaleEngine@Base 6.1.2
 _ZTI18QwtNullPaintDevice@Base 6.1.2
 _ZTI18QwtPlainTextEngine@Base 6.1.2
 _ZTI18QwtPlotSpectrogram@Base 6.1.2
 _ZTI18QwtPointSeriesData@Base 6.1.2
 _ZTI19QwtCompassScaleDraw@Base 6.1.2
 _ZTI19QwtCompassWindArrow@Base 6.1.2
 _ZTI19QwtDialSimpleNeedle@Base 6.1.2
 _ZTI19QwtLegendLayoutItem@Base 6.1.2
 _ZTI19QwtMatrixRasterData@Base 6.1.2
 _ZTI19QwtPickerRubberband@Base 6.1.2
 _ZTI19QwtPlotSpectroCurve@Base 6.1.2
 _ZTI19QwtPlotTradingCurve@Base 6.1.2
 _ZTI19QwtRichTextDocument@Base 6.1.2
 _ZTI19QwtTradingChartData@Base 6.1.2
 _ZTI20QwtAbstractScaleDraw@Base 6.1.2
 _ZTI20QwtLinearScaleEngine@Base 6.1.2
 _ZTI20QwtPlotDirectPainter@Base 6.1.2
 _ZTI20QwtPlotIntervalCurve@Base 6.1.2
 _ZTI20QwtPlotMultiBarChart@Base 6.1.2
 _ZTI20QwtPoint3DSeriesData@Base 6.1.2
 _ZTI20QwtSimpleCompassRose@Base 6.1.2
 _ZTI20QwtSplineCurveFitter@Base 6.1.2
 _ZTI21QwtIntervalSeriesData@Base 6.1.2
 _ZTI21QwtStyleSheetRecorder@Base 6.1.2
 _ZTI21QwtSyntheticPointData@Base 6.1.2
 _ZTI21QwtWeedingCurveFitter@Base 6.1.2
 _ZTI22QwtAbstractSeriesStore@Base 6.1.2
 _ZTI22QwtCompassMagnetNeedle@Base 6.1.2
 _ZTI23QwtAnalogClockScaleDraw@Base 6.1.2
 _ZTI23QwtPickerPolygonMachine@Base 6.1.2
 _ZTI23QwtPickerTrackerMachine@Base 6.1.2
 _ZTI23QwtPlotAbstractBarChart@Base 6.1.2
 _ZTI24QwtPickerDragLineMachine@Base 6.1.2
 _ZTI24QwtPickerDragRectMachine@Base 6.1.2
 _ZTI25QwtPickerClickRectMachine@Base 6.1.2
 _ZTI25QwtPickerDragPointMachine@Base 6.1.2
 _ZTI26QwtPickerClickPointMachine@Base 6.1.2
 _ZTI7QwtDial@Base 6.1.2
 _ZTI7QwtKnob@Base 6.1.2
 _ZTI7QwtPlot@Base 6.1.2
 _ZTI8QwtWheel@Base 6.1.2
 _ZTI9QwtLegend@Base 6.1.2
 _ZTI9QwtPanner@Base 6.1.2
 _ZTI9QwtPicker@Base 6.1.2
 _ZTI9QwtSlider@Base 6.1.2
 _ZTI9QwtSymbol@Base 6.1.2
 _ZTI9QwtThermo@Base 6.1.2
 _ZTIN12QtConcurrent15RunFunctionTaskIvEE@Base 6.1.2
 _ZTIN12QtConcurrent18StoredFunctorCall4IvPFvPK6QImagePS1_RK5QRectiES4_S4_S5_iEE@Base 6.1.2
 _ZTIN12QtConcurrent18StoredFunctorCall5IvPFvRK11QwtScaleMapS3_14QwtDotsCommandRK6QPointP6QImageES1_S1_S4_S5_S9_EE@Base 6.1.4
 _ZTIN12QtConcurrent19RunFunctionTaskBaseIvEE@Base 6.1.2
 _ZTIN12QtConcurrent41VoidStoredConstMemberFunctionPointerCall4Iv18QwtPlotSpectrogramRK11QwtScaleMapS2_S4_S2_RK5QRectS5_P6QImageS9_EE@Base 6.1.2
 _ZTIN18QwtNullPaintDevice11PaintEngineE@Base 6.1.2
 _ZTIN9QwtLegend11PrivateData10LegendViewE@Base 6.1.2
 _ZTS10QwtCompass@Base 6.1.2
 _ZTS10QwtCounter@Base 6.1.2
 _ZTS10QwtGraphic@Base 6.1.2
 _ZTS11QwtColorMap@Base 6.1.2
 _ZTS11QwtPlotDict@Base 6.1.2
 _ZTS11QwtPlotGrid@Base 6.1.2
 _ZTS11QwtPlotItem@Base 6.1.2
 _ZTS12QwtMagnifier@Base 6.1.2
 _ZTS12QwtPlotCurve@Base 6.1.2
 _ZTS12QwtScaleDraw@Base 6.1.2
 _ZTS12QwtTextLabel@Base 6.1.2
 _ZTS12QwtTransform@Base 6.1.2
 _ZTS13QwtDialNeedle@Base 6.1.2
 _ZTS13QwtPlotCanvas@Base 6.1.2
 _ZTS13QwtPlotLayout@Base 6.1.2
 _ZTS13QwtPlotMarker@Base 6.1.2
 _ZTS13QwtPlotPanner@Base 6.1.2
 _ZTS13QwtPlotPicker@Base 6.1.2
 _ZTS13QwtPlotZoomer@Base 6.1.2
 _ZTS13QwtRasterData@Base 6.1.2
 _ZTS13QwtSeriesDataI10QwtPoint3DE@Base 6.1.2
 _ZTS13QwtSeriesDataI12QwtSetSampleE@Base 6.1.2
 _ZTS13QwtSeriesDataI13QwtOHLCSampleE@Base 6.1.2
 _ZTS13QwtSeriesDataI17QwtIntervalSampleE@Base 6.1.2
 _ZTS13QwtSeriesDataI7QPointFE@Base 6.1.2
 _ZTS13QwtTextEngine@Base 6.1.2
 _ZTS14QwtAnalogClock@Base 6.1.2
 _ZTS14QwtArrowButton@Base 6.1.2
 _ZTS14QwtCompassRose@Base 6.1.2
 _ZTS14QwtCurveFitter@Base 6.1.2
 _ZTS14QwtLegendLabel@Base 6.1.2
 _ZTS14QwtPlotSvgItem@Base 6.1.2
 _ZTS14QwtScaleEngine@Base 6.1.2
 _ZTS14QwtScaleWidget@Base 6.1.2
 _ZTS14QwtSeriesStoreI10QwtPoint3DE@Base 6.1.2
 _ZTS14QwtSeriesStoreI12QwtSetSampleE@Base 6.1.2
 _ZTS14QwtSeriesStoreI13QwtOHLCSampleE@Base 6.1.2
 _ZTS14QwtSeriesStoreI17QwtIntervalSampleE@Base 6.1.2
 _ZTS14QwtSeriesStoreI7QPointFE@Base 6.1.2
 _ZTS14QwtSystemClock@Base 6.1.2
 _ZTS15QwtCPointerData@Base 6.1.2
 _ZTS15QwtColumnSymbol@Base 6.1.2
 _ZTS15QwtEventPattern@Base 6.1.2
 _ZTS15QwtLogTransform@Base 6.1.2
 _ZTS15QwtPlotBarChart@Base 6.1.2
 _ZTS15QwtPlotGLCanvas@Base 6.1.2
 _ZTS15QwtPlotRenderer@Base 6.1.2
 _ZTS15QwtPlotRescaler@Base 6.1.2
 _ZTS15QwtPlotZoneItem@Base 6.1.2
 _ZTS16QFutureInterfaceIvE@Base 6.1.2
 _ZTS16QwtAbstractScale@Base 6.1.2
 _ZTS16QwtAlphaColorMap@Base 6.1.2
 _ZTS16QwtDateScaleDraw@Base 6.1.2
 _ZTS16QwtDynGridLayout@Base 6.1.2
 _ZTS16QwtNullTransform@Base 6.1.2
 _ZTS16QwtPickerMachine@Base 6.1.2
 _ZTS16QwtPickerTracker@Base 6.1.2
 _ZTS16QwtPlotHistogram@Base 6.1.2
 _ZTS16QwtPlotMagnifier@Base 6.1.2
 _ZTS16QwtPlotScaleItem@Base 6.1.2
 _ZTS16QwtPlotShapeItem@Base 6.1.2
 _ZTS16QwtPlotTextLabel@Base 6.1.2
 _ZTS16QwtSetSeriesData@Base 6.1.2
 _ZTS16QwtWidgetOverlay@Base 6.1.2
 _ZTS17QwtAbstractLegend@Base 6.1.2
 _ZTS17QwtAbstractSlider@Base 6.1.2
 _ZTS17QwtIntervalSymbol@Base 6.1.2
 _ZTS17QwtLinearColorMap@Base 6.1.2
 _ZTS17QwtLogScaleEngine@Base 6.1.2
 _ZTS17QwtPlotLegendItem@Base 6.1.2
 _ZTS17QwtPlotRasterItem@Base 6.1.2
 _ZTS17QwtPlotSeriesItem@Base 6.1.2
 _ZTS17QwtPointArrayData@Base 6.1.2
 _ZTS17QwtPowerTransform@Base 6.1.2
 _ZTS17QwtRichTextEngine@Base 6.1.2
 _ZTS17QwtRoundScaleDraw@Base 6.1.2
 _ZTS17QwtSamplingThread@Base 6.1.2
 _ZTS18QwtArraySeriesDataI10QwtPoint3DE@Base 6.1.2
 _ZTS18QwtArraySeriesDataI12QwtSetSampleE@Base 6.1.2
 _ZTS18QwtArraySeriesDataI13QwtOHLCSampleE@Base 6.1.2
 _ZTS18QwtArraySeriesDataI17QwtIntervalSampleE@Base 6.1.2
 _ZTS18QwtArraySeriesDataI7QPointFE@Base 6.1.2
 _ZTS18QwtDateScaleEngine@Base 6.1.2
 _ZTS18QwtNullPaintDevice@Base 6.1.2
 _ZTS18QwtPlainTextEngine@Base 6.1.2
 _ZTS18QwtPlotSpectrogram@Base 6.1.2
 _ZTS18QwtPointSeriesData@Base 6.1.2
 _ZTS19QwtCompassScaleDraw@Base 6.1.2
 _ZTS19QwtCompassWindArrow@Base 6.1.2
 _ZTS19QwtDialSimpleNeedle@Base 6.1.2
 _ZTS19QwtLegendLayoutItem@Base 6.1.2
 _ZTS19QwtMatrixRasterData@Base 6.1.2
 _ZTS19QwtPickerRubberband@Base 6.1.2
 _ZTS19QwtPlotSpectroCurve@Base 6.1.2
 _ZTS19QwtPlotTradingCurve@Base 6.1.2
 _ZTS19QwtRichTextDocument@Base 6.1.2
 _ZTS19QwtTradingChartData@Base 6.1.2
 _ZTS20QwtAbstractScaleDraw@Base 6.1.2
 _ZTS20QwtLinearScaleEngine@Base 6.1.2
 _ZTS20QwtPlotDirectPainter@Base 6.1.2
 _ZTS20QwtPlotIntervalCurve@Base 6.1.2
 _ZTS20QwtPlotMultiBarChart@Base 6.1.2
 _ZTS20QwtPoint3DSeriesData@Base 6.1.2
 _ZTS20QwtSimpleCompassRose@Base 6.1.2
 _ZTS20QwtSplineCurveFitter@Base 6.1.2
 _ZTS21QwtIntervalSeriesData@Base 6.1.2
 _ZTS21QwtStyleSheetRecorder@Base 6.1.2
 _ZTS21QwtSyntheticPointData@Base 6.1.2
 _ZTS21QwtWeedingCurveFitter@Base 6.1.2
 _ZTS22QwtAbstractSeriesStore@Base 6.1.2
 _ZTS22QwtCompassMagnetNeedle@Base 6.1.2
 _ZTS23QwtAnalogClockScaleDraw@Base 6.1.2
 _ZTS23QwtPickerPolygonMachine@Base 6.1.2
 _ZTS23QwtPickerTrackerMachine@Base 6.1.2
 _ZTS23QwtPlotAbstractBarChart@Base 6.1.2
 _ZTS24QwtPickerDragLineMachine@Base 6.1.2
 _ZTS24QwtPickerDragRectMachine@Base 6.1.2
 _ZTS25QwtPickerClickRectMachine@Base 6.1.2
 _ZTS25QwtPickerDragPointMachine@Base 6.1.2
 _ZTS26QwtPickerClickPointMachine@Base 6.1.2
 _ZTS7QwtDial@Base 6.1.2
 _ZTS7QwtKnob@Base 6.1.2
 _ZTS7QwtPlot@Base 6.1.2
 _ZTS8QwtWheel@Base 6.1.2
 _ZTS9QwtLegend@Base 6.1.2
 _ZTS9QwtPanner@Base 6.1.2
 _ZTS9QwtPicker@Base 6.1.2
 _ZTS9QwtSlider@Base 6.1.2
 _ZTS9QwtSymbol@Base 6.1.2
 _ZTS9QwtThermo@Base 6.1.2
 _ZTSN12QtConcurrent15RunFunctionTaskIvEE@Base 6.1.2
 _ZTSN12QtConcurrent18StoredFunctorCall4IvPFvPK6QImagePS1_RK5QRectiES4_S4_S5_iEE@Base 6.1.2
 _ZTSN12QtConcurrent18StoredFunctorCall5IvPFvRK11QwtScaleMapS3_14QwtDotsCommandRK6QPointP6QImageES1_S1_S4_S5_S9_EE@Base 6.1.4
 _ZTSN12QtConcurrent19RunFunctionTaskBaseIvEE@Base 6.1.2
 _ZTSN12QtConcurrent41VoidStoredConstMemberFunctionPointerCall4Iv18QwtPlotSpectrogramRK11QwtScaleMapS2_S4_S2_RK5QRectS5_P6QImageS9_EE@Base 6.1.2
 _ZTSN18QwtNullPaintDevice11PaintEngineE@Base 6.1.2
 _ZTSN9QwtLegend11PrivateData10LegendViewE@Base 6.1.2
 _ZTT12QwtPlotCurve@Base 6.1.2
 _ZTT15QwtPlotBarChart@Base 6.1.2
 _ZTT16QwtPlotHistogram@Base 6.1.2
 _ZTT17QwtPlotSeriesItem@Base 6.1.2
 _ZTT19QwtPlotSpectroCurve@Base 6.1.2
 _ZTT19QwtPlotTradingCurve@Base 6.1.2
 _ZTT20QwtPlotIntervalCurve@Base 6.1.2
 _ZTT20QwtPlotMultiBarChart@Base 6.1.2
 _ZTT23QwtPlotAbstractBarChart@Base 6.1.2
 _ZTV10QwtCompass@Base 6.1.2
 _ZTV10QwtCounter@Base 6.1.2
 _ZTV10QwtGraphic@Base 6.1.2
 _ZTV11QwtColorMap@Base 6.1.2
 _ZTV11QwtPlotDict@Base 6.1.2
 _ZTV11QwtPlotGrid@Base 6.1.2
 _ZTV11QwtPlotItem@Base 6.1.2
 _ZTV12QwtMagnifier@Base 6.1.2
 _ZTV12QwtPlotCurve@Base 6.1.2
 _ZTV12QwtScaleDraw@Base 6.1.2
 _ZTV12QwtTextLabel@Base 6.1.2
 _ZTV12QwtTransform@Base 6.1.2
 _ZTV13QwtDialNeedle@Base 6.1.2
 _ZTV13QwtPlotCanvas@Base 6.1.2
 _ZTV13QwtPlotLayout@Base 6.1.2
 _ZTV13QwtPlotMarker@Base 6.1.2
 _ZTV13QwtPlotPanner@Base 6.1.2
 _ZTV13QwtPlotPicker@Base 6.1.2
 _ZTV13QwtPlotZoomer@Base 6.1.2
 _ZTV13QwtRasterData@Base 6.1.2
 _ZTV13QwtTextEngine@Base 6.1.2
 _ZTV14QwtAnalogClock@Base 6.1.2
 _ZTV14QwtArrowButton@Base 6.1.2
 _ZTV14QwtCompassRose@Base 6.1.2
 _ZTV14QwtCurveFitter@Base 6.1.2
 _ZTV14QwtLegendLabel@Base 6.1.2
 _ZTV14QwtPlotSvgItem@Base 6.1.2
 _ZTV14QwtScaleEngine@Base 6.1.2
 _ZTV14QwtScaleWidget@Base 6.1.2
 _ZTV14QwtSystemClock@Base 6.1.2
 _ZTV15QwtCPointerData@Base 6.1.2
 _ZTV15QwtColumnSymbol@Base 6.1.2
 _ZTV15QwtEventPattern@Base 6.1.2
 _ZTV15QwtLogTransform@Base 6.1.2
 _ZTV15QwtPlotBarChart@Base 6.1.2
 _ZTV15QwtPlotGLCanvas@Base 6.1.2
 _ZTV15QwtPlotRenderer@Base 6.1.2
 _ZTV15QwtPlotRescaler@Base 6.1.2
 _ZTV15QwtPlotZoneItem@Base 6.1.2
 _ZTV16QFutureInterfaceIvE@Base 6.1.2
 _ZTV16QwtAbstractScale@Base 6.1.2
 _ZTV16QwtAlphaColorMap@Base 6.1.2
 _ZTV16QwtDateScaleDraw@Base 6.1.2
 _ZTV16QwtDynGridLayout@Base 6.1.2
 _ZTV16QwtNullTransform@Base 6.1.2
 _ZTV16QwtPickerMachine@Base 6.1.2
 _ZTV16QwtPickerTracker@Base 6.1.2
 _ZTV16QwtPlotHistogram@Base 6.1.2
 _ZTV16QwtPlotMagnifier@Base 6.1.2
 _ZTV16QwtPlotScaleItem@Base 6.1.2
 _ZTV16QwtPlotShapeItem@Base 6.1.2
 _ZTV16QwtPlotTextLabel@Base 6.1.2
 _ZTV16QwtSetSeriesData@Base 6.1.2
 _ZTV16QwtWidgetOverlay@Base 6.1.2
 _ZTV17QwtAbstractLegend@Base 6.1.2
 _ZTV17QwtAbstractSlider@Base 6.1.2
 _ZTV17QwtIntervalSymbol@Base 6.1.2
 _ZTV17QwtLinearColorMap@Base 6.1.2
 _ZTV17QwtLogScaleEngine@Base 6.1.2
 _ZTV17QwtPlotLegendItem@Base 6.1.2
 _ZTV17QwtPlotRasterItem@Base 6.1.2
 _ZTV17QwtPlotSeriesItem@Base 6.1.2
 _ZTV17QwtPointArrayData@Base 6.1.2
 _ZTV17QwtPowerTransform@Base 6.1.2
 _ZTV17QwtRichTextEngine@Base 6.1.2
 _ZTV17QwtRoundScaleDraw@Base 6.1.2
 _ZTV17QwtSamplingThread@Base 6.1.2
 _ZTV18QwtArraySeriesDataI10QwtPoint3DE@Base 6.1.2
 _ZTV18QwtArraySeriesDataI12QwtSetSampleE@Base 6.1.2
 _ZTV18QwtArraySeriesDataI13QwtOHLCSampleE@Base 6.1.2
 _ZTV18QwtArraySeriesDataI17QwtIntervalSampleE@Base 6.1.2
 _ZTV18QwtArraySeriesDataI7QPointFE@Base 6.1.2
 _ZTV18QwtDateScaleEngine@Base 6.1.2
 _ZTV18QwtNullPaintDevice@Base 6.1.2
 _ZTV18QwtPlainTextEngine@Base 6.1.2
 _ZTV18QwtPlotSpectrogram@Base 6.1.2
 _ZTV18QwtPointSeriesData@Base 6.1.2
 _ZTV19QwtCompassScaleDraw@Base 6.1.2
 _ZTV19QwtCompassWindArrow@Base 6.1.2
 _ZTV19QwtDialSimpleNeedle@Base 6.1.2
 _ZTV19QwtLegendLayoutItem@Base 6.1.2
 _ZTV19QwtMatrixRasterData@Base 6.1.2
 _ZTV19QwtPickerRubberband@Base 6.1.2
 _ZTV19QwtPlotSpectroCurve@Base 6.1.2
 _ZTV19QwtPlotTradingCurve@Base 6.1.2
 _ZTV19QwtRichTextDocument@Base 6.1.2
 _ZTV19QwtTradingChartData@Base 6.1.2
 _ZTV20QwtAbstractScaleDraw@Base 6.1.2
 _ZTV20QwtLinearScaleEngine@Base 6.1.2
 _ZTV20QwtPlotDirectPainter@Base 6.1.2
 _ZTV20QwtPlotIntervalCurve@Base 6.1.2
 _ZTV20QwtPlotMultiBarChart@Base 6.1.2
 _ZTV20QwtPoint3DSeriesData@Base 6.1.2
 _ZTV20QwtSimpleCompassRose@Base 6.1.2
 _ZTV20QwtSplineCurveFitter@Base 6.1.2
 _ZTV21QwtIntervalSeriesData@Base 6.1.2
 _ZTV21QwtStyleSheetRecorder@Base 6.1.2
 _ZTV21QwtSyntheticPointData@Base 6.1.2
 _ZTV21QwtWeedingCurveFitter@Base 6.1.2
 _ZTV22QwtAbstractSeriesStore@Base 6.1.2
 _ZTV22QwtCompassMagnetNeedle@Base 6.1.2
 _ZTV23QwtAnalogClockScaleDraw@Base 6.1.2
 _ZTV23QwtPickerPolygonMachine@Base 6.1.2
 _ZTV23QwtPickerTrackerMachine@Base 6.1.2
 _ZTV23QwtPlotAbstractBarChart@Base 6.1.2
 _ZTV24QwtPickerDragLineMachine@Base 6.1.2
 _ZTV24QwtPickerDragRectMachine@Base 6.1.2
 _ZTV25QwtPickerClickRectMachine@Base 6.1.2
 _ZTV25QwtPickerDragPointMachine@Base 6.1.2
 _ZTV26QwtPickerClickPointMachine@Base 6.1.2
 _ZTV7QwtDial@Base 6.1.2
 _ZTV7QwtKnob@Base 6.1.2
 _ZTV7QwtPlot@Base 6.1.2
 _ZTV8QwtWheel@Base 6.1.2
 _ZTV9QwtLegend@Base 6.1.2
 _ZTV9QwtPanner@Base 6.1.2
 _ZTV9QwtPicker@Base 6.1.2
 _ZTV9QwtSlider@Base 6.1.2
 _ZTV9QwtSymbol@Base 6.1.2
 _ZTV9QwtThermo@Base 6.1.2
 _ZTVN12QtConcurrent18StoredFunctorCall4IvPFvPK6QImagePS1_RK5QRectiES4_S4_S5_iEE@Base 6.1.2
 _ZTVN12QtConcurrent18StoredFunctorCall5IvPFvRK11QwtScaleMapS3_14QwtDotsCommandRK6QPointP6QImageES1_S1_S4_S5_S9_EE@Base 6.1.4
 (optional=gccinternal)_ZTVN12QtConcurrent19RunFunctionTaskBaseIvEE@Base 6.1.2
 _ZTVN12QtConcurrent41VoidStoredConstMemberFunctionPointerCall4Iv18QwtPlotSpectrogramRK11QwtScaleMapS2_S4_S2_RK5QRectS5_P6QImageS9_EE@Base 6.1.2
 _ZTVN18QwtNullPaintDevice11PaintEngineE@Base 6.1.2
 _ZTVN9QwtLegend11PrivateData10LegendViewE@Base 6.1.2
 (optional=templinst)_ZZN11QMetaTypeIdI10QwtGraphicE14qt_metatype_idEvE11metatype_id@Base 6.1.2
 (optional=templinst)_ZZN11QMetaTypeIdI7QVectorI7QPointFEE14qt_metatype_idEvE11metatype_id@Base 6.1.2
 (optional=templinst)_ZZN11QMetaTypeIdI7QwtTextE14qt_metatype_idEvE11metatype_id@Base 6.1.2
 (optional=templinst)_ZZN11QMetaTypeIdIN17QtMetaTypePrivate23QSequentialIterableImplEE14qt_metatype_idEvE11metatype_id@Base 6.1.2
 (optional=templinst)_ZZN11QMetaTypeIdIP11QwtPlotItemE14qt_metatype_idEvE11metatype_id@Base 6.1.2
 (optional=templinst)_ZZN9QtPrivate19ValueTypeIsMetaTypeI7QVectorI7QPointFELb1EE17registerConverterEiE1f@Base 6.1.2
 _ZZNK13QwtRasterData12ContourPlane9intersectEPK10QwtPoint3DP7QPointFbE3tab@Base 6.1.2
 _ZZNK18QwtPlainTextEngine11PrivateData10findAscentERK5QFontE5dummy@Base 6.1.2
 _ZZNK18QwtPlainTextEngine11PrivateData10findAscentERK5QFontE5white@Base 6.1.2
 _Zls6QDebugRK10QwtPoint3D@Base 6.1.2
 _Zls6QDebugRK11QwtInterval@Base 6.1.2
 _Zls6QDebugRK11QwtScaleDiv@Base 6.1.2
 _Zls6QDebugRK11QwtScaleMap@Base 6.1.2
 _Zls6QDebugRK13QwtPointPolar@Base 6.1.2
 _ZneRK6QRectFS1_@Base 6.1.4
 (c++)"non-virtual thunk to QtConcurrent::RunFunctionTask<void>::run()@Base" 6.1.2
 (c++)"non-virtual thunk to QtConcurrent::RunFunctionTaskBase<void>::run()@Base" 6.1.2
 (c++)"non-virtual thunk to QtConcurrent::StoredFunctorCall4<void, void (*)(QImage const*, QImage*, QRect const&, int), QImage*, QImage*, QRect, int>::~StoredFunctorCall4()@Base" 6.1.2
 (c++)"non-virtual thunk to QtConcurrent::StoredFunctorCall5<void, void (*)(QwtScaleMap const&, QwtScaleMap const&, QwtDotsCommand, QPoint const&, QImage*), QwtScaleMap, QwtScaleMap, QwtDotsCommand, QPoint, QImage*>::~StoredFunctorCall5()@Base" 6.1.4
 (c++)"non-virtual thunk to QtConcurrent::VoidStoredConstMemberFunctionPointerCall4<void, QwtPlotSpectrogram, QwtScaleMap const&, QwtScaleMap, QwtScaleMap const&, QwtScaleMap, QRect const&, QRect, QImage*, QImage*>::~VoidStoredConstMemberFunctionPointerCall4()@Base" 6.1.2
 (c++)"non-virtual thunk to QwtAbstractLegend::~QwtAbstractLegend()@Base" 6.1.2
 (c++)"non-virtual thunk to QwtAbstractScale::~QwtAbstractScale()@Base" 6.1.2
 (c++)"non-virtual thunk to QwtAbstractSlider::~QwtAbstractSlider()@Base" 6.1.2
 (c++)"non-virtual thunk to QwtAnalogClock::~QwtAnalogClock()@Base" 6.1.2
 (c++)"non-virtual thunk to QwtArrowButton::~QwtArrowButton()@Base" 6.1.2
 (c++)"non-virtual thunk to QwtCompass::~QwtCompass()@Base" 6.1.2
 (c++)"non-virtual thunk to QwtCounter::~QwtCounter()@Base" 6.1.2
 (c++)"non-virtual thunk to QwtDial::~QwtDial()@Base" 6.1.2
 (c++)"non-virtual thunk to QwtDynGridLayout::expandingDirections() const@Base" 6.1.2
 (c++)"non-virtual thunk to QwtDynGridLayout::hasHeightForWidth() const@Base" 6.1.2
 (c++)"non-virtual thunk to QwtDynGridLayout::heightForWidth(int) const@Base" 6.1.2
 (c++)"non-virtual thunk to QwtDynGridLayout::invalidate()@Base" 6.1.2
 (c++)"non-virtual thunk to QwtDynGridLayout::isEmpty() const@Base" 6.1.2
 (c++)"non-virtual thunk to QwtDynGridLayout::setGeometry(QRect const&)@Base" 6.1.2
 (c++)"non-virtual thunk to QwtDynGridLayout::sizeHint() const@Base" 6.1.2
 (c++)"non-virtual thunk to QwtDynGridLayout::~QwtDynGridLayout()@Base" 6.1.2
 (c++)"non-virtual thunk to QwtKnob::~QwtKnob()@Base" 6.1.2
 (c++)"non-virtual thunk to QwtLegend::PrivateData::LegendView::~LegendView()@Base" 6.1.2
 (c++)"non-virtual thunk to QwtLegend::~QwtLegend()@Base" 6.1.2
 (c++)"non-virtual thunk to QwtLegendLabel::~QwtLegendLabel()@Base" 6.1.2
 (c++)"non-virtual thunk to QwtPanner::~QwtPanner()@Base" 6.1.2
 (c++)"non-virtual thunk to QwtPicker::~QwtPicker()@Base" 6.1.2
 (c++)"non-virtual thunk to QwtPickerRubberband::~QwtPickerRubberband()@Base" 6.1.2
 (c++)"non-virtual thunk to QwtPickerTracker::~QwtPickerTracker()@Base" 6.1.2
 (c++)"non-virtual thunk to QwtPlot::~QwtPlot()@Base" 6.1.2
 (c++)"non-virtual thunk to QwtPlotBarChart::~QwtPlotBarChart()@Base" 6.1.2
 (c++)"non-virtual thunk to QwtPlotCanvas::~QwtPlotCanvas()@Base" 6.1.2
 (c++)"non-virtual thunk to QwtPlotCurve::~QwtPlotCurve()@Base" 6.1.2
 (c++)"non-virtual thunk to QwtPlotGLCanvas::~QwtPlotGLCanvas()@Base" 6.1.2
 (c++)"non-virtual thunk to QwtPlotHistogram::~QwtPlotHistogram()@Base" 6.1.2
 (c++)"non-virtual thunk to QwtPlotIntervalCurve::~QwtPlotIntervalCurve()@Base" 6.1.2
 (c++)"non-virtual thunk to QwtPlotMultiBarChart::~QwtPlotMultiBarChart()@Base" 6.1.2
 (c++)"non-virtual thunk to QwtPlotPanner::~QwtPlotPanner()@Base" 6.1.2
 (c++)"non-virtual thunk to QwtPlotPicker::~QwtPlotPicker()@Base" 6.1.2
 (c++)"non-virtual thunk to QwtPlotSpectroCurve::~QwtPlotSpectroCurve()@Base" 6.1.2
 (c++)"non-virtual thunk to QwtPlotTradingCurve::~QwtPlotTradingCurve()@Base" 6.1.2
 (c++)"non-virtual thunk to QwtPlotZoomer::~QwtPlotZoomer()@Base" 6.1.2
 (c++)"non-virtual thunk to QwtScaleWidget::~QwtScaleWidget()@Base" 6.1.2
 (c++)"non-virtual thunk to QwtSlider::~QwtSlider()@Base" 6.1.2
 (c++)"non-virtual thunk to QwtTextLabel::~QwtTextLabel()@Base" 6.1.2
 (c++)"non-virtual thunk to QwtThermo::~QwtThermo()@Base" 6.1.2
 (c++)"non-virtual thunk to QwtWheel::~QwtWheel()@Base" 6.1.2
 (c++)"non-virtual thunk to QwtWidgetOverlay::~QwtWidgetOverlay()@Base" 6.1.2
 (c++)"virtual thunk to QwtPlotAbstractBarChart::~QwtPlotAbstractBarChart()@Base" 6.1.2
 (c++)"virtual thunk to QwtPlotBarChart::~QwtPlotBarChart()@Base" 6.1.2
 (c++)"virtual thunk to QwtPlotCurve::~QwtPlotCurve()@Base" 6.1.2
 (c++)"virtual thunk to QwtPlotHistogram::~QwtPlotHistogram()@Base" 6.1.2
 (c++)"virtual thunk to QwtPlotIntervalCurve::~QwtPlotIntervalCurve()@Base" 6.1.2
 (c++)"virtual thunk to QwtPlotMultiBarChart::~QwtPlotMultiBarChart()@Base" 6.1.2
 (c++)"virtual thunk to QwtPlotSeriesItem::dataChanged()@Base" 6.1.2
 (c++)"virtual thunk to QwtPlotSeriesItem::~QwtPlotSeriesItem()@Base" 6.1.2
 (c++)"virtual thunk to QwtPlotSpectroCurve::~QwtPlotSpectroCurve()@Base" 6.1.2
 (c++)"virtual thunk to QwtPlotTradingCurve::~QwtPlotTradingCurve()@Base" 6.1.2
 (c++)"virtual thunk to QwtSeriesStore<QPointF>::dataRect() const@Base" 6.1.2
 (c++)"virtual thunk to QwtSeriesStore<QPointF>::dataSize() const@Base" 6.1.2
 (c++)"virtual thunk to QwtSeriesStore<QPointF>::setRectOfInterest(QRectF const&)@Base" 6.1.2
 (c++)"virtual thunk to QwtSeriesStore<QwtIntervalSample>::dataRect() const@Base" 6.1.2
 (c++)"virtual thunk to QwtSeriesStore<QwtIntervalSample>::dataSize() const@Base" 6.1.2
 (c++)"virtual thunk to QwtSeriesStore<QwtIntervalSample>::setRectOfInterest(QRectF const&)@Base" 6.1.2
 (c++)"virtual thunk to QwtSeriesStore<QwtOHLCSample>::dataRect() const@Base" 6.1.2
 (c++)"virtual thunk to QwtSeriesStore<QwtOHLCSample>::dataSize() const@Base" 6.1.2
 (c++)"virtual thunk to QwtSeriesStore<QwtOHLCSample>::setRectOfInterest(QRectF const&)@Base" 6.1.2
 (c++)"virtual thunk to QwtSeriesStore<QwtPoint3D>::dataRect() const@Base" 6.1.2
 (c++)"virtual thunk to QwtSeriesStore<QwtPoint3D>::dataSize() const@Base" 6.1.2
 (c++)"virtual thunk to QwtSeriesStore<QwtPoint3D>::setRectOfInterest(QRectF const&)@Base" 6.1.2
 (c++)"virtual thunk to QwtSeriesStore<QwtSetSample>::dataRect() const@Base" 6.1.2
 (c++)"virtual thunk to QwtSeriesStore<QwtSetSample>::dataSize() const@Base" 6.1.2
 (c++)"virtual thunk to QwtSeriesStore<QwtSetSample>::setRectOfInterest(QRectF const&)@Base" 6.1.2
